ARM GAS  C:\Users\Lenovo\AppData\Local\Temp\cc1a9Imr.s 			page 1


   1              		.syntax unified
   2              		.cpu cortex-m4
   3              		.eabi_attribute 27, 1
   4              		.fpu fpv4-sp-d16
   5              		.eabi_attribute 20, 1
   6              		.eabi_attribute 21, 1
   7              		.eabi_attribute 23, 3
   8              		.eabi_attribute 24, 1
   9              		.eabi_attribute 25, 1
  10              		.eabi_attribute 26, 1
  11              		.eabi_attribute 30, 1
  12              		.eabi_attribute 34, 1
  13              		.eabi_attribute 18, 4
  14              		.thumb
  15              		.syntax unified
  16              		.file	"cy_eink_library.c"
  17              		.text
  18              	.Ltext0:
  19              		.cfi_sections	.debug_frame
  20              		.section	.text.Cy_EINK_Start,"ax",%progbits
  21              		.align	2
  22              		.global	Cy_EINK_Start
  23              		.thumb
  24              		.thumb_func
  25              		.type	Cy_EINK_Start, %function
  26              	Cy_EINK_Start:
  27              	.LFB571:
  28              		.file 1 "eInk Library\\cy_eink_library.c"
   1:eInk Library/cy_eink_library.c **** /******************************************************************************
   2:eInk Library/cy_eink_library.c **** * File Name: cy_eink_library.c
   3:eInk Library/cy_eink_library.c **** *
   4:eInk Library/cy_eink_library.c **** * Version: 1.10
   5:eInk Library/cy_eink_library.c **** *
   6:eInk Library/cy_eink_library.c **** * Description: This file contains the library functions for controlling
   7:eInk Library/cy_eink_library.c **** *              the E-INK display.
   8:eInk Library/cy_eink_library.c **** *
   9:eInk Library/cy_eink_library.c **** * Hardware Dependency: CY8CKIT-028-EPD E-INK Display Shield
  10:eInk Library/cy_eink_library.c **** *
  11:eInk Library/cy_eink_library.c **** *******************************************************************************
  12:eInk Library/cy_eink_library.c **** * Copyright (2017), Cypress Semiconductor Corporation. All rights reserved.
  13:eInk Library/cy_eink_library.c **** *******************************************************************************
  14:eInk Library/cy_eink_library.c **** * This software, including source code, documentation and related materials
  15:eInk Library/cy_eink_library.c **** * (“Software”), is owned by Cypress Semiconductor Corporation or one of its
  16:eInk Library/cy_eink_library.c **** * subsidiaries (“Cypress”) and is protected by and subject to worldwide patent
  17:eInk Library/cy_eink_library.c **** * protection (United States and foreign), United States copyright laws and
  18:eInk Library/cy_eink_library.c **** * international treaty provisions. Therefore, you may use this Software only
  19:eInk Library/cy_eink_library.c **** * as provided in the license agreement accompanying the software package from
  20:eInk Library/cy_eink_library.c **** * which you obtained this Software (“EULA”).
  21:eInk Library/cy_eink_library.c **** *
  22:eInk Library/cy_eink_library.c **** * If no EULA applies, Cypress hereby grants you a personal, nonexclusive,
  23:eInk Library/cy_eink_library.c **** * non-transferable license to copy, modify, and compile the Software source
  24:eInk Library/cy_eink_library.c **** * code solely for use in connection with Cypress’s integrated circuit products.
  25:eInk Library/cy_eink_library.c **** * Any reproduction, modification, translation, compilation, or representation
  26:eInk Library/cy_eink_library.c **** * of this Software except as specified above is prohibited without the express
  27:eInk Library/cy_eink_library.c **** * written permission of Cypress.
  28:eInk Library/cy_eink_library.c **** *
  29:eInk Library/cy_eink_library.c **** * Disclaimer: THIS SOFTWARE IS PROVIDED AS-IS, WITH NO WARRANTY OF ANY KIND, 
ARM GAS  C:\Users\Lenovo\AppData\Local\Temp\cc1a9Imr.s 			page 2


  30:eInk Library/cy_eink_library.c **** * EXPRESS OR IMPLIED, INCLUDING, BUT NOT LIMITED TO, NONINFRINGEMENT, IMPLIED 
  31:eInk Library/cy_eink_library.c **** * WARRANTIES OF MERCHANTABILITY AND FITNESS FOR A PARTICULAR PURPOSE. Cypress 
  32:eInk Library/cy_eink_library.c **** * reserves the right to make changes to the Software without notice. Cypress 
  33:eInk Library/cy_eink_library.c **** * does not assume any liability arising out of the application or use of the 
  34:eInk Library/cy_eink_library.c **** * Software or any product or circuit described in the Software. Cypress does 
  35:eInk Library/cy_eink_library.c **** * not authorize its products for use in any products where a malfunction or 
  36:eInk Library/cy_eink_library.c **** * failure of the Cypress product may reasonably be expected to result in 
  37:eInk Library/cy_eink_library.c **** * significant property damage, injury or death (“High Risk Product”). By 
  38:eInk Library/cy_eink_library.c **** * including Cypress’s product in a High Risk Product, the manufacturer of such 
  39:eInk Library/cy_eink_library.c **** * system or application assumes all risk of such use and in doing so agrees to 
  40:eInk Library/cy_eink_library.c **** * indemnify Cypress against all liability.
  41:eInk Library/cy_eink_library.c **** *******************************************************************************/
  42:eInk Library/cy_eink_library.c **** /******************************************************************************
  43:eInk Library/cy_eink_library.c **** * This file contains the library functions for controlling the E-INK display.
  44:eInk Library/cy_eink_library.c **** *
  45:eInk Library/cy_eink_library.c **** * For the details of the E-INK display and library functions, see the code  
  46:eInk Library/cy_eink_library.c **** * example document of CE218133 - PSoC 6 MCU E-INK Display with CapSense
  47:eInk Library/cy_eink_library.c **** *
  48:eInk Library/cy_eink_library.c **** * For the details of E-INK display hardware and driver interface, see the documents
  49:eInk Library/cy_eink_library.c **** * available at the following location:
  50:eInk Library/cy_eink_library.c **** * http://www.pervasivedisplays.com/products/271
  51:eInk Library/cy_eink_library.c ****  *******************************************************************************/
  52:eInk Library/cy_eink_library.c **** 
  53:eInk Library/cy_eink_library.c **** /* Header file includes */
  54:eInk Library/cy_eink_library.c **** #include "cy_eink_library.h"
  55:eInk Library/cy_eink_library.c **** 
  56:eInk Library/cy_eink_library.c **** /* Range of ASCII printable characters: "!" to "~" */
  57:eInk Library/cy_eink_library.c **** #define CY_EINK_ASCII_MIN  (uint8_t) (0x21)
  58:eInk Library/cy_eink_library.c **** #define CY_EINK_ASCII_MAX  (uint8_t) (0x7E)
  59:eInk Library/cy_eink_library.c **** 
  60:eInk Library/cy_eink_library.c **** /*******************************************************************************
  61:eInk Library/cy_eink_library.c **** * Function Name: void Cy_EINK_Start(int8_t temperature)
  62:eInk Library/cy_eink_library.c **** ********************************************************************************
  63:eInk Library/cy_eink_library.c **** *
  64:eInk Library/cy_eink_library.c **** * Summary: Initialize the E-INK display hardware, starts the required PSoC 
  65:eInk Library/cy_eink_library.c **** *  components, and also performs temperature compensation of E-INK parameters.
  66:eInk Library/cy_eink_library.c **** *
  67:eInk Library/cy_eink_library.c **** *  Note: This function does not turn on the E-INK display.
  68:eInk Library/cy_eink_library.c **** *
  69:eInk Library/cy_eink_library.c **** * Parameters:
  70:eInk Library/cy_eink_library.c **** *  int8_t temperature : Ambient temperature in degree Celsius
  71:eInk Library/cy_eink_library.c **** *
  72:eInk Library/cy_eink_library.c **** * Return:
  73:eInk Library/cy_eink_library.c **** *  None
  74:eInk Library/cy_eink_library.c **** *
  75:eInk Library/cy_eink_library.c **** * Side Effects:
  76:eInk Library/cy_eink_library.c **** *  Lower ambient temperature results in higher refresh times
  77:eInk Library/cy_eink_library.c **** *
  78:eInk Library/cy_eink_library.c **** *******************************************************************************/
  79:eInk Library/cy_eink_library.c **** void Cy_EINK_Start(int8_t temperature)
  80:eInk Library/cy_eink_library.c **** {
  29              		.loc 1 80 0
  30              		.cfi_startproc
  31              		@ args = 0, pretend = 0, frame = 0
  32              		@ frame_needed = 0, uses_anonymous_args = 0
  33              	.LVL0:
  34 0000 10B5     		push	{r4, lr}
ARM GAS  C:\Users\Lenovo\AppData\Local\Temp\cc1a9Imr.s 			page 3


  35              		.cfi_def_cfa_offset 8
  36              		.cfi_offset 4, -8
  37              		.cfi_offset 14, -4
  38 0002 0446     		mov	r4, r0
  81:eInk Library/cy_eink_library.c ****     /* Initialize the E-INK display hardware and associated PSoC components */
  82:eInk Library/cy_eink_library.c ****     Pv_EINK_Init();
  39              		.loc 1 82 0
  40 0004 FFF7FEFF 		bl	Pv_EINK_Init
  41              	.LVL1:
  83:eInk Library/cy_eink_library.c ****     
  84:eInk Library/cy_eink_library.c ****     /* Perform temperature compensation of E-INK parameters */
  85:eInk Library/cy_eink_library.c ****     Pv_EINK_SetTempFactor(temperature);
  42              		.loc 1 85 0
  43 0008 2046     		mov	r0, r4
  44 000a FFF7FEFF 		bl	Pv_EINK_SetTempFactor
  45              	.LVL2:
  46 000e 10BD     		pop	{r4, pc}
  47              		.cfi_endproc
  48              	.LFE571:
  49              		.size	Cy_EINK_Start, .-Cy_EINK_Start
  50              		.section	.text.Cy_EINK_Power,"ax",%progbits
  51              		.align	2
  52              		.global	Cy_EINK_Power
  53              		.thumb
  54              		.thumb_func
  55              		.type	Cy_EINK_Power, %function
  56              	Cy_EINK_Power:
  57              	.LFB572:
  86:eInk Library/cy_eink_library.c **** }
  87:eInk Library/cy_eink_library.c **** 
  88:eInk Library/cy_eink_library.c **** /*******************************************************************************
  89:eInk Library/cy_eink_library.c **** * Function Name: bool Cy_EINK_Power(bool powerCtrl)
  90:eInk Library/cy_eink_library.c **** ********************************************************************************
  91:eInk Library/cy_eink_library.c **** *
  92:eInk Library/cy_eink_library.c **** * Summary: This function is used to turn on/off the E-INK display power.
  93:eInk Library/cy_eink_library.c **** *
  94:eInk Library/cy_eink_library.c **** *  Note: This function can not be used to clear the E-INK display. The display 
  95:eInk Library/cy_eink_library.c **** *  will retain the previously written frame even when it's turned off.
  96:eInk Library/cy_eink_library.c **** *
  97:eInk Library/cy_eink_library.c **** * Parameters:
  98:eInk Library/cy_eink_library.c **** *  bool powerCtrl : "False" turns off and "True" turns on the display.
  99:eInk Library/cy_eink_library.c **** *
 100:eInk Library/cy_eink_library.c **** * Return:
 101:eInk Library/cy_eink_library.c **** *  bool           : "True" if operation was successful; "False" otherwise
 102:eInk Library/cy_eink_library.c **** *
 103:eInk Library/cy_eink_library.c **** * Side Effects:
 104:eInk Library/cy_eink_library.c **** *  None
 105:eInk Library/cy_eink_library.c **** *
 106:eInk Library/cy_eink_library.c **** *******************************************************************************/
 107:eInk Library/cy_eink_library.c **** bool Cy_EINK_Power(bool powerCtrl)
 108:eInk Library/cy_eink_library.c **** {
  58              		.loc 1 108 0
  59              		.cfi_startproc
  60              		@ args = 0, pretend = 0, frame = 0
  61              		@ frame_needed = 0, uses_anonymous_args = 0
  62              	.LVL3:
  63 0000 08B5     		push	{r3, lr}
ARM GAS  C:\Users\Lenovo\AppData\Local\Temp\cc1a9Imr.s 			page 4


  64              		.cfi_def_cfa_offset 8
  65              		.cfi_offset 3, -8
  66              		.cfi_offset 14, -4
  67              	.LVL4:
 109:eInk Library/cy_eink_library.c ****     /* Variable to store operation status */
 110:eInk Library/cy_eink_library.c ****     uint8_t pwrStatus = CY_EINK_OPERATION_FAILURE;
 111:eInk Library/cy_eink_library.c ****     
 112:eInk Library/cy_eink_library.c ****     /* Turn on the E-INK power if powerCtrl is "true" */
 113:eInk Library/cy_eink_library.c ****     if (powerCtrl == CY_EINK_ON)
  68              		.loc 1 113 0
  69 0002 10B1     		cbz	r0, .L4
 114:eInk Library/cy_eink_library.c ****     {
 115:eInk Library/cy_eink_library.c ****         pwrStatus = Pv_EINK_HardwarePowerOn();
  70              		.loc 1 115 0
  71 0004 FFF7FEFF 		bl	Pv_EINK_HardwarePowerOn
  72              	.LVL5:
  73 0008 01E0     		b	.L5
  74              	.LVL6:
  75              	.L4:
 116:eInk Library/cy_eink_library.c ****     }
 117:eInk Library/cy_eink_library.c ****     /* Turn off the E-INK power if powerCtrl is "false" */
 118:eInk Library/cy_eink_library.c ****     else
 119:eInk Library/cy_eink_library.c ****     {
 120:eInk Library/cy_eink_library.c ****         pwrStatus = Pv_EINK_HardwarePowerOff();
  76              		.loc 1 120 0
  77 000a FFF7FEFF 		bl	Pv_EINK_HardwarePowerOff
  78              	.LVL7:
  79              	.L5:
 121:eInk Library/cy_eink_library.c ****     }
 122:eInk Library/cy_eink_library.c ****     /* If the operation was successful, return "true" */
 123:eInk Library/cy_eink_library.c ****     if (pwrStatus == PV_EINK_RES_OK)
  80              		.loc 1 123 0
  81 000e 08B9     		cbnz	r0, .L7
 124:eInk Library/cy_eink_library.c ****     {
 125:eInk Library/cy_eink_library.c ****         pwrStatus = CY_EINK_OPERATION_SUCCESS;
  82              		.loc 1 125 0
  83 0010 0120     		movs	r0, #1
  84              	.LVL8:
  85 0012 08BD     		pop	{r3, pc}
  86              	.LVL9:
  87              	.L7:
 126:eInk Library/cy_eink_library.c ****     }
 127:eInk Library/cy_eink_library.c ****     /* If the operation was not successful, return "false" */
 128:eInk Library/cy_eink_library.c ****     else
 129:eInk Library/cy_eink_library.c ****     {
 130:eInk Library/cy_eink_library.c ****         pwrStatus = CY_EINK_OPERATION_FAILURE;
  88              		.loc 1 130 0
  89 0014 0020     		movs	r0, #0
  90              	.LVL10:
 131:eInk Library/cy_eink_library.c ****     }
 132:eInk Library/cy_eink_library.c ****     
 133:eInk Library/cy_eink_library.c ****     /* Return the outcome of the power control operation */
 134:eInk Library/cy_eink_library.c ****     return (pwrStatus);
 135:eInk Library/cy_eink_library.c **** }
  91              		.loc 1 135 0
  92 0016 08BD     		pop	{r3, pc}
  93              		.cfi_endproc
ARM GAS  C:\Users\Lenovo\AppData\Local\Temp\cc1a9Imr.s 			page 5


  94              	.LFE572:
  95              		.size	Cy_EINK_Power, .-Cy_EINK_Power
  96              		.section	.text.Cy_EINK_Clear,"ax",%progbits
  97              		.align	2
  98              		.global	Cy_EINK_Clear
  99              		.thumb
 100              		.thumb_func
 101              		.type	Cy_EINK_Clear, %function
 102              	Cy_EINK_Clear:
 103              	.LFB573:
 136:eInk Library/cy_eink_library.c **** 
 137:eInk Library/cy_eink_library.c **** /*******************************************************************************
 138:eInk Library/cy_eink_library.c **** * Function Name: void Cy_EINK_Clear(bool background, bool powerCycle)
 139:eInk Library/cy_eink_library.c **** ********************************************************************************
 140:eInk Library/cy_eink_library.c **** *
 141:eInk Library/cy_eink_library.c **** * Summary: This function is used to clear the display to all white or all black
 142:eInk Library/cy_eink_library.c **** *  pixels.
 143:eInk Library/cy_eink_library.c **** *
 144:eInk Library/cy_eink_library.c **** *  Note1: The E-INK display should be powered on (using Cy_EINK_Power function) 
 145:eInk Library/cy_eink_library.c **** *  before calling this function if "powerCycle" is false. Otherwise the display 
 146:eInk Library/cy_eink_library.c **** *  won't be cleared.
 147:eInk Library/cy_eink_library.c **** *
 148:eInk Library/cy_eink_library.c **** *  Note2: This function is intended to be called only after a reset/power up.
 149:eInk Library/cy_eink_library.c **** *  Use Cy_EINK_ShowFrame() function to clear the display if you know the frame
 150:eInk Library/cy_eink_library.c **** *  that has been written to the display.
 151:eInk Library/cy_eink_library.c **** *
 152:eInk Library/cy_eink_library.c **** * Parameters:
 153:eInk Library/cy_eink_library.c **** *  bool background   : False for black background and True for white background.
 154:eInk Library/cy_eink_library.c **** *  bool powerCycle   : True for automatic power cycle. False otherwise
 155:eInk Library/cy_eink_library.c **** * 
 156:eInk Library/cy_eink_library.c **** * Return:
 157:eInk Library/cy_eink_library.c **** *  None
 158:eInk Library/cy_eink_library.c **** *
 159:eInk Library/cy_eink_library.c **** * Side Effects:
 160:eInk Library/cy_eink_library.c **** *  This is a blocking function that can take as many as 2 seconds 
 161:eInk Library/cy_eink_library.c **** *
 162:eInk Library/cy_eink_library.c **** *******************************************************************************/
 163:eInk Library/cy_eink_library.c **** void Cy_EINK_Clear(bool background, bool powerCycle)
 164:eInk Library/cy_eink_library.c **** {
 104              		.loc 1 164 0
 105              		.cfi_startproc
 106              		@ args = 0, pretend = 0, frame = 0
 107              		@ frame_needed = 0, uses_anonymous_args = 0
 108              	.LVL11:
 109 0000 38B5     		push	{r3, r4, r5, lr}
 110              		.cfi_def_cfa_offset 16
 111              		.cfi_offset 3, -16
 112              		.cfi_offset 4, -12
 113              		.cfi_offset 5, -8
 114              		.cfi_offset 14, -4
 115 0002 0446     		mov	r4, r0
 165:eInk Library/cy_eink_library.c ****     /* If power cycle operation requested, turn on E-INK power */
 166:eInk Library/cy_eink_library.c ****     if (powerCycle)
 116              		.loc 1 166 0
 117 0004 0D46     		mov	r5, r1
 118 0006 11B1     		cbz	r1, .L10
 167:eInk Library/cy_eink_library.c ****     {
ARM GAS  C:\Users\Lenovo\AppData\Local\Temp\cc1a9Imr.s 			page 6


 168:eInk Library/cy_eink_library.c ****         Cy_EINK_Power(CY_EINK_ON);
 119              		.loc 1 168 0
 120 0008 0120     		movs	r0, #1
 121              	.LVL12:
 122 000a FFF7FEFF 		bl	Cy_EINK_Power
 123              	.LVL13:
 124              	.L10:
 169:eInk Library/cy_eink_library.c ****     }
 170:eInk Library/cy_eink_library.c ****     /* Clear the display to white background */
 171:eInk Library/cy_eink_library.c ****     if (background == CY_EINK_WHITE_BACKGROUND)
 125              		.loc 1 171 0
 126 000e 44B1     		cbz	r4, .L11
 172:eInk Library/cy_eink_library.c ****     {
 173:eInk Library/cy_eink_library.c ****         /* Two consecutive display updates to reduce ghosting */
 174:eInk Library/cy_eink_library.c ****         Pv_EINK_FullStageHandler(CY_EINK_WHITE_FRAME, PV_EINK_STAGE4);
 127              		.loc 1 174 0
 128 0010 0321     		movs	r1, #3
 129 0012 0020     		movs	r0, #0
 130 0014 FFF7FEFF 		bl	Pv_EINK_FullStageHandler
 131              	.LVL14:
 175:eInk Library/cy_eink_library.c ****         Pv_EINK_FullStageHandler(CY_EINK_WHITE_FRAME, PV_EINK_STAGE4);
 132              		.loc 1 175 0
 133 0018 0321     		movs	r1, #3
 134 001a 0020     		movs	r0, #0
 135 001c FFF7FEFF 		bl	Pv_EINK_FullStageHandler
 136              	.LVL15:
 137 0020 09E0     		b	.L12
 138              	.L11:
 176:eInk Library/cy_eink_library.c ****     }
 177:eInk Library/cy_eink_library.c ****     /* Clear the display to black background */
 178:eInk Library/cy_eink_library.c ****     else if (background == CY_EINK_BLACK_BACKGROUND)
 139              		.loc 1 178 0
 140 0022 44B9     		cbnz	r4, .L12
 179:eInk Library/cy_eink_library.c ****     {
 180:eInk Library/cy_eink_library.c ****         /* Two consecutive display updates to reduce ghosting */
 181:eInk Library/cy_eink_library.c ****         Pv_EINK_FullStageHandler(CY_EINK_BLACK_FRAME, PV_EINK_STAGE4);
 141              		.loc 1 181 0
 142 0024 064C     		ldr	r4, .L15
 143 0026 0321     		movs	r1, #3
 144 0028 2046     		mov	r0, r4
 145 002a FFF7FEFF 		bl	Pv_EINK_FullStageHandler
 146              	.LVL16:
 182:eInk Library/cy_eink_library.c ****         Pv_EINK_FullStageHandler(CY_EINK_BLACK_FRAME, PV_EINK_STAGE4);
 147              		.loc 1 182 0
 148 002e 0321     		movs	r1, #3
 149 0030 2046     		mov	r0, r4
 150 0032 FFF7FEFF 		bl	Pv_EINK_FullStageHandler
 151              	.LVL17:
 152              	.L12:
 183:eInk Library/cy_eink_library.c ****     }
 184:eInk Library/cy_eink_library.c ****     else
 185:eInk Library/cy_eink_library.c ****     {
 186:eInk Library/cy_eink_library.c ****     }
 187:eInk Library/cy_eink_library.c ****     
 188:eInk Library/cy_eink_library.c ****     /* If power cycle operation requested, turn off E-INK power */
 189:eInk Library/cy_eink_library.c ****     if (powerCycle)
 153              		.loc 1 189 0
ARM GAS  C:\Users\Lenovo\AppData\Local\Temp\cc1a9Imr.s 			page 7


 154 0036 15B1     		cbz	r5, .L9
 190:eInk Library/cy_eink_library.c ****     {
 191:eInk Library/cy_eink_library.c ****         Cy_EINK_Power(CY_EINK_OFF);
 155              		.loc 1 191 0
 156 0038 0020     		movs	r0, #0
 157 003a FFF7FEFF 		bl	Cy_EINK_Power
 158              	.LVL18:
 159              	.L9:
 160 003e 38BD     		pop	{r3, r4, r5, pc}
 161              	.L16:
 162              		.align	2
 163              	.L15:
 164 0040 FFFF0F10 		.word	269484031
 165              		.cfi_endproc
 166              	.LFE573:
 167              		.size	Cy_EINK_Clear, .-Cy_EINK_Clear
 168              		.section	.text.Cy_EINK_ShowFrame,"ax",%progbits
 169              		.align	2
 170              		.global	Cy_EINK_ShowFrame
 171              		.thumb
 172              		.thumb_func
 173              		.type	Cy_EINK_ShowFrame, %function
 174              	Cy_EINK_ShowFrame:
 175              	.LFB574:
 192:eInk Library/cy_eink_library.c ****     }
 193:eInk Library/cy_eink_library.c **** }
 194:eInk Library/cy_eink_library.c **** 
 195:eInk Library/cy_eink_library.c **** /*******************************************************************************
 196:eInk Library/cy_eink_library.c **** * Function Name: void Cy_EINK_ShowFrame(cy_eink_frame_t* prevFrame, 
 197:eInk Library/cy_eink_library.c **** *      cy_eink_frame_t* newFrame,CY_EINK_UpdateType updateType, bool powerCycle)
 198:eInk Library/cy_eink_library.c **** ********************************************************************************
 199:eInk Library/cy_eink_library.c **** *
 200:eInk Library/cy_eink_library.c **** * Summary: Updates the E-INK display with a frame/image stored in the flash or RAM.
 201:eInk Library/cy_eink_library.c **** *
 202:eInk Library/cy_eink_library.c **** *  Notes: This function requires the previous frame data as well as the new frame
 203:eInk Library/cy_eink_library.c **** *  data. If the previous frame data changes from the actual frame previously 
 204:eInk Library/cy_eink_library.c **** *  written to the display, considerable ghosting may occur.
 205:eInk Library/cy_eink_library.c **** *
 206:eInk Library/cy_eink_library.c **** *  The E-INK display should be powered on (using Cy_EINK_Power function) before 
 207:eInk Library/cy_eink_library.c **** *  calling this function, if "powerCycle" parameter is false. Otherwise the display 
 208:eInk Library/cy_eink_library.c **** *  won't be updated.
 209:eInk Library/cy_eink_library.c **** *
 210:eInk Library/cy_eink_library.c **** * Parameters:
 211:eInk Library/cy_eink_library.c **** *  cy_eink_frame_t* prevFrame    : Pointer to the previous frame written on the display
 212:eInk Library/cy_eink_library.c **** *  cy_eink_frame_t* newFrame     : Pointer to the new frame that need to be written
 213:eInk Library/cy_eink_library.c **** *  cy_eink_update_t              : Full update (2/4 stages) or  Partial update
 214:eInk Library/cy_eink_library.c **** *  bool powerCycle               : "true" for automatic power cycle, "false" for manual
 215:eInk Library/cy_eink_library.c **** *
 216:eInk Library/cy_eink_library.c **** *  Return:
 217:eInk Library/cy_eink_library.c **** *  None
 218:eInk Library/cy_eink_library.c **** *
 219:eInk Library/cy_eink_library.c **** * Side Effects:
 220:eInk Library/cy_eink_library.c **** *  This is a blocking function that can take as many as 2 seconds 
 221:eInk Library/cy_eink_library.c **** *
 222:eInk Library/cy_eink_library.c **** ********************************************************************************/
 223:eInk Library/cy_eink_library.c **** void Cy_EINK_ShowFrame(cy_eink_frame_t* prevFrame, cy_eink_frame_t* newFrame,
 224:eInk Library/cy_eink_library.c ****                        cy_eink_update_t updateType, bool powerCycle)
ARM GAS  C:\Users\Lenovo\AppData\Local\Temp\cc1a9Imr.s 			page 8


 225:eInk Library/cy_eink_library.c **** {
 176              		.loc 1 225 0
 177              		.cfi_startproc
 178              		@ args = 0, pretend = 0, frame = 0
 179              		@ frame_needed = 0, uses_anonymous_args = 0
 180              	.LVL19:
 181 0000 F8B5     		push	{r3, r4, r5, r6, r7, lr}
 182              		.cfi_def_cfa_offset 24
 183              		.cfi_offset 3, -24
 184              		.cfi_offset 4, -20
 185              		.cfi_offset 5, -16
 186              		.cfi_offset 6, -12
 187              		.cfi_offset 7, -8
 188              		.cfi_offset 14, -4
 189 0002 0746     		mov	r7, r0
 190 0004 0E46     		mov	r6, r1
 191 0006 1446     		mov	r4, r2
 226:eInk Library/cy_eink_library.c ****     /* If power cycle operation requested, turn on E-INK power */
 227:eInk Library/cy_eink_library.c ****     if (powerCycle)
 192              		.loc 1 227 0
 193 0008 1D46     		mov	r5, r3
 194 000a 13B1     		cbz	r3, .L18
 228:eInk Library/cy_eink_library.c ****     {
 229:eInk Library/cy_eink_library.c ****         Cy_EINK_Power(CY_EINK_ON);
 195              		.loc 1 229 0
 196 000c 0120     		movs	r0, #1
 197              	.LVL20:
 198 000e FFF7FEFF 		bl	Cy_EINK_Power
 199              	.LVL21:
 200              	.L18:
 230:eInk Library/cy_eink_library.c ****     }
 231:eInk Library/cy_eink_library.c ****     /* Partial update stage */
 232:eInk Library/cy_eink_library.c ****     if (updateType == CY_EINK_PARTIAL)
 201              		.loc 1 232 0
 202 0012 24B9     		cbnz	r4, .L19
 233:eInk Library/cy_eink_library.c ****     {
 234:eInk Library/cy_eink_library.c ****         /* Update the display with changes from previous frame */
 235:eInk Library/cy_eink_library.c ****         Pv_EINK_PartialStageHandler(prevFrame, newFrame);
 203              		.loc 1 235 0
 204 0014 3146     		mov	r1, r6
 205 0016 3846     		mov	r0, r7
 206 0018 FFF7FEFF 		bl	Pv_EINK_PartialStageHandler
 207              	.LVL22:
 208 001c 15E0     		b	.L20
 209              	.L19:
 236:eInk Library/cy_eink_library.c ****     }
 237:eInk Library/cy_eink_library.c ****     /* Full update stages */
 238:eInk Library/cy_eink_library.c ****     else if ((updateType == CY_EINK_FULL_4STAGE) || 
 210              		.loc 1 238 0
 211 001e 631E     		subs	r3, r4, #1
 212 0020 DBB2     		uxtb	r3, r3
 213 0022 012B     		cmp	r3, #1
 214 0024 11D8     		bhi	.L20
 239:eInk Library/cy_eink_library.c ****              (updateType == CY_EINK_FULL_2STAGE))
 240:eInk Library/cy_eink_library.c ****     {
 241:eInk Library/cy_eink_library.c ****         /* Stage 1: update the display with the inverted version of the previous 
 242:eInk Library/cy_eink_library.c ****            frame */
ARM GAS  C:\Users\Lenovo\AppData\Local\Temp\cc1a9Imr.s 			page 9


 243:eInk Library/cy_eink_library.c ****         Pv_EINK_FullStageHandler(prevFrame, PV_EINK_STAGE1);
 215              		.loc 1 243 0
 216 0026 0021     		movs	r1, #0
 217 0028 3846     		mov	r0, r7
 218 002a FFF7FEFF 		bl	Pv_EINK_FullStageHandler
 219              	.LVL23:
 244:eInk Library/cy_eink_library.c ****         
 245:eInk Library/cy_eink_library.c ****         /* Additional stages that reduce ghosting for a 4 stage full update */
 246:eInk Library/cy_eink_library.c ****         if (updateType == CY_EINK_FULL_4STAGE)
 220              		.loc 1 246 0
 221 002e 012C     		cmp	r4, #1
 222 0030 07D1     		bne	.L21
 247:eInk Library/cy_eink_library.c ****         {
 248:eInk Library/cy_eink_library.c ****             /* Stage 2: update the display with an all white frame */
 249:eInk Library/cy_eink_library.c ****             Pv_EINK_FullStageHandler(prevFrame, PV_EINK_STAGE2);
 223              		.loc 1 249 0
 224 0032 0121     		movs	r1, #1
 225 0034 3846     		mov	r0, r7
 226 0036 FFF7FEFF 		bl	Pv_EINK_FullStageHandler
 227              	.LVL24:
 250:eInk Library/cy_eink_library.c ****             /* Stage 3: update the display with the inverted version of the new 
 251:eInk Library/cy_eink_library.c ****                frame */
 252:eInk Library/cy_eink_library.c ****             Pv_EINK_FullStageHandler(newFrame, PV_EINK_STAGE3);
 228              		.loc 1 252 0
 229 003a 0221     		movs	r1, #2
 230 003c 3046     		mov	r0, r6
 231 003e FFF7FEFF 		bl	Pv_EINK_FullStageHandler
 232              	.LVL25:
 233              	.L21:
 253:eInk Library/cy_eink_library.c ****         }
 254:eInk Library/cy_eink_library.c ****         
 255:eInk Library/cy_eink_library.c ****         /* Stage 4: update the display with the new frame */
 256:eInk Library/cy_eink_library.c ****         Pv_EINK_FullStageHandler(newFrame, PV_EINK_STAGE4);
 234              		.loc 1 256 0
 235 0042 0321     		movs	r1, #3
 236 0044 3046     		mov	r0, r6
 237 0046 FFF7FEFF 		bl	Pv_EINK_FullStageHandler
 238              	.LVL26:
 239              	.L20:
 257:eInk Library/cy_eink_library.c ****     }
 258:eInk Library/cy_eink_library.c ****     else
 259:eInk Library/cy_eink_library.c ****     {
 260:eInk Library/cy_eink_library.c ****     }
 261:eInk Library/cy_eink_library.c ****     
 262:eInk Library/cy_eink_library.c ****     /* If power cycle operation requested, turn off E-INK power */
 263:eInk Library/cy_eink_library.c ****     if (powerCycle)
 240              		.loc 1 263 0
 241 004a 15B1     		cbz	r5, .L17
 264:eInk Library/cy_eink_library.c ****     {
 265:eInk Library/cy_eink_library.c ****         Cy_EINK_Power(CY_EINK_OFF);
 242              		.loc 1 265 0
 243 004c 0020     		movs	r0, #0
 244 004e FFF7FEFF 		bl	Cy_EINK_Power
 245              	.LVL27:
 246              	.L17:
 247 0052 F8BD     		pop	{r3, r4, r5, r6, r7, pc}
 248              		.cfi_endproc
ARM GAS  C:\Users\Lenovo\AppData\Local\Temp\cc1a9Imr.s 			page 10


 249              	.LFE574:
 250              		.size	Cy_EINK_ShowFrame, .-Cy_EINK_ShowFrame
 251              		.section	.text.Cy_EINK_ImageToFrameBuffer,"ax",%progbits
 252              		.align	2
 253              		.global	Cy_EINK_ImageToFrameBuffer
 254              		.thumb
 255              		.thumb_func
 256              		.type	Cy_EINK_ImageToFrameBuffer, %function
 257              	Cy_EINK_ImageToFrameBuffer:
 258              	.LFB575:
 266:eInk Library/cy_eink_library.c ****     }
 267:eInk Library/cy_eink_library.c **** }
 268:eInk Library/cy_eink_library.c **** 
 269:eInk Library/cy_eink_library.c **** /*******************************************************************************
 270:eInk Library/cy_eink_library.c **** * Function Name: void Cy_EINK_ImageToFrameBuffer(cy_eink_frame_t* frameBuffer,
 271:eInk Library/cy_eink_library.c **** *                               cy_eink_frame_t* image, uint8_t* imgCoordinates)
 272:eInk Library/cy_eink_library.c **** ********************************************************************************
 273:eInk Library/cy_eink_library.c **** *
 274:eInk Library/cy_eink_library.c **** * Summary: Copies pixel block data between the specified x and y coordinates 
 275:eInk Library/cy_eink_library.c **** *  from an image (typically stored in the flash) to a frame buffer in RAM.
 276:eInk Library/cy_eink_library.c **** *
 277:eInk Library/cy_eink_library.c **** *  Notes: Image array should be of the same size as frame buffer.
 278:eInk Library/cy_eink_library.c **** *
 279:eInk Library/cy_eink_library.c **** *  Copying is done at byte level. Pixel level operations are not supported.
 280:eInk Library/cy_eink_library.c **** *
 281:eInk Library/cy_eink_library.c **** *  This function does not update the E-INK display. After frame buffer update,
 282:eInk Library/cy_eink_library.c **** *  use Cy_EINK_ShowFrame() function to update the display if required.
 283:eInk Library/cy_eink_library.c **** *
 284:eInk Library/cy_eink_library.c **** *  This function can be used to clear the frame buffer by passing an all-white 
 285:eInk Library/cy_eink_library.c **** *  or an all-black image.
 286:eInk Library/cy_eink_library.c **** *
 287:eInk Library/cy_eink_library.c **** * Parameters:
 288:eInk Library/cy_eink_library.c **** *  cy_eink_frame_t* frameBuffer   : Pointer to the frame buffer array in RAM
 289:eInk Library/cy_eink_library.c **** *  cy_eink_frame_t* image         : Pointer to the image array (typically in flash)
 290:eInk Library/cy_eink_library.c **** *  uint8_t* imgCoordinates   : Pointer to a 4-byte array of image coordinates
 291:eInk Library/cy_eink_library.c **** *
 292:eInk Library/cy_eink_library.c **** * Return:
 293:eInk Library/cy_eink_library.c **** *  None
 294:eInk Library/cy_eink_library.c **** *
 295:eInk Library/cy_eink_library.c **** * Side Effects:
 296:eInk Library/cy_eink_library.c **** *  This is a blocking function that can take as many as 5808 RAM write cycles
 297:eInk Library/cy_eink_library.c **** *  to complete.
 298:eInk Library/cy_eink_library.c **** *
 299:eInk Library/cy_eink_library.c **** *******************************************************************************/
 300:eInk Library/cy_eink_library.c **** void Cy_EINK_ImageToFrameBuffer(cy_eink_frame_t* frameBuffer, cy_eink_frame_t* image,
 301:eInk Library/cy_eink_library.c ****                                 uint8_t* imgCoordinates)
 302:eInk Library/cy_eink_library.c **** {
 259              		.loc 1 302 0
 260              		.cfi_startproc
 261              		@ args = 0, pretend = 0, frame = 0
 262              		@ frame_needed = 0, uses_anonymous_args = 0
 263              	.LVL28:
 264 0000 F8B5     		push	{r3, r4, r5, r6, r7, lr}
 265              		.cfi_def_cfa_offset 24
 266              		.cfi_offset 3, -24
 267              		.cfi_offset 4, -20
 268              		.cfi_offset 5, -16
ARM GAS  C:\Users\Lenovo\AppData\Local\Temp\cc1a9Imr.s 			page 11


 269              		.cfi_offset 6, -12
 270              		.cfi_offset 7, -8
 271              		.cfi_offset 14, -4
 272 0002 0746     		mov	r7, r0
 273 0004 0E46     		mov	r6, r1
 274 0006 1546     		mov	r5, r2
 303:eInk Library/cy_eink_library.c ****     /* Counter variable for horizontal pixel lines */
 304:eInk Library/cy_eink_library.c ****     uint16_t pixelLineCounter;
 305:eInk Library/cy_eink_library.c ****     
 306:eInk Library/cy_eink_library.c ****     /* Variable that stores the starting location of the current pixel line */
 307:eInk Library/cy_eink_library.c ****     uint16_t startLocation;
 308:eInk Library/cy_eink_library.c ****     
 309:eInk Library/cy_eink_library.c ****     /* Variable that stores the length of the pixel line */
 310:eInk Library/cy_eink_library.c ****     uint16_t lineLength;
 311:eInk Library/cy_eink_library.c ****     
 312:eInk Library/cy_eink_library.c ****     /* Do this for all horizontal pixel lines between Y1 and Y2 coordinates */
 313:eInk Library/cy_eink_library.c ****     for (pixelLineCounter  = imgCoordinates[CY_EINK_IMG_Y1];
 275              		.loc 1 313 0
 276 0008 9478     		ldrb	r4, [r2, #2]	@ zero_extendqisi2
 277              	.LVL29:
 278 000a 0DE0     		b	.L25
 279              	.LVL30:
 280              	.L26:
 314:eInk Library/cy_eink_library.c ****          pixelLineCounter <= imgCoordinates[CY_EINK_IMG_Y2];
 315:eInk Library/cy_eink_library.c ****          pixelLineCounter++)
 316:eInk Library/cy_eink_library.c ****     {
 317:eInk Library/cy_eink_library.c ****         
 318:eInk Library/cy_eink_library.c ****         /* Find the starting location of the pixel line */
 319:eInk Library/cy_eink_library.c ****         startLocation = (pixelLineCounter * PV_EINK_HORIZONTAL_SIZE) + 
 281              		.loc 1 319 0
 282 000c 2A78     		ldrb	r2, [r5]	@ zero_extendqisi2
 283 000e 04EB4410 		add	r0, r4, r4, lsl #5
 284 0012 1044     		add	r0, r0, r2
 285 0014 80B2     		uxth	r0, r0
 286              	.LVL31:
 320:eInk Library/cy_eink_library.c ****                          imgCoordinates[CY_EINK_IMG_X1];
 321:eInk Library/cy_eink_library.c ****         
 322:eInk Library/cy_eink_library.c ****        /* Find the length of the pixel line to be copied */
 323:eInk Library/cy_eink_library.c ****         lineLength = imgCoordinates[CY_EINK_IMG_X2] - imgCoordinates[CY_EINK_IMG_X1];
 287              		.loc 1 323 0
 288 0016 6B78     		ldrb	r3, [r5, #1]	@ zero_extendqisi2
 289 0018 9A1A     		subs	r2, r3, r2
 290              	.LVL32:
 324:eInk Library/cy_eink_library.c ****         
 325:eInk Library/cy_eink_library.c ****         /* Copy the pixel line from the image to the same location in the 
 326:eInk Library/cy_eink_library.c ****            frame buffer */
 327:eInk Library/cy_eink_library.c ****         memcpy (&frameBuffer[startLocation], &image[startLocation], lineLength);
 291              		.loc 1 327 0
 292 001a 92B2     		uxth	r2, r2
 293 001c 3118     		adds	r1, r6, r0
 294 001e 3844     		add	r0, r0, r7
 295              	.LVL33:
 296 0020 FFF7FEFF 		bl	memcpy
 297              	.LVL34:
 315:eInk Library/cy_eink_library.c ****     {
 298              		.loc 1 315 0
 299 0024 0134     		adds	r4, r4, #1
ARM GAS  C:\Users\Lenovo\AppData\Local\Temp\cc1a9Imr.s 			page 12


 300              	.LVL35:
 301 0026 A4B2     		uxth	r4, r4
 302              	.LVL36:
 303              	.L25:
 314:eInk Library/cy_eink_library.c ****          pixelLineCounter++)
 304              		.loc 1 314 0 discriminator 1
 305 0028 EB78     		ldrb	r3, [r5, #3]	@ zero_extendqisi2
 313:eInk Library/cy_eink_library.c ****          pixelLineCounter <= imgCoordinates[CY_EINK_IMG_Y2];
 306              		.loc 1 313 0 discriminator 1
 307 002a 9C42     		cmp	r4, r3
 308 002c EED9     		bls	.L26
 328:eInk Library/cy_eink_library.c ****         
 329:eInk Library/cy_eink_library.c ****     }
 330:eInk Library/cy_eink_library.c **** }
 309              		.loc 1 330 0
 310 002e F8BD     		pop	{r3, r4, r5, r6, r7, pc}
 311              		.cfi_endproc
 312              	.LFE575:
 313              		.size	Cy_EINK_ImageToFrameBuffer, .-Cy_EINK_ImageToFrameBuffer
 314              		.section	.text.Cy_EINK_TextToFrameBuffer,"ax",%progbits
 315              		.align	2
 316              		.global	Cy_EINK_TextToFrameBuffer
 317              		.thumb
 318              		.thumb_func
 319              		.type	Cy_EINK_TextToFrameBuffer, %function
 320              	Cy_EINK_TextToFrameBuffer:
 321              	.LFB576:
 331:eInk Library/cy_eink_library.c **** 
 332:eInk Library/cy_eink_library.c **** /*******************************************************************************
 333:eInk Library/cy_eink_library.c **** * Function Name: void Cy_EINK_TextToFrameBuffer(cy_eink_frame_t* frameBuffer, 
 334:eInk Library/cy_eink_library.c **** *                char* string, cy_eink_font_t* fontInfo , uint8_t* fontCor)
 335:eInk Library/cy_eink_library.c **** ********************************************************************************
 336:eInk Library/cy_eink_library.c **** *
 337:eInk Library/cy_eink_library.c **** * Summary: Converts a text input (string) to pixel data and stores it at the
 338:eInk Library/cy_eink_library.c **** *  specified coordinates of a frame buffer.
 339:eInk Library/cy_eink_library.c **** *
 340:eInk Library/cy_eink_library.c **** *  Notes: This function only supports printable ASCII characters from "!" to "~"
 341:eInk Library/cy_eink_library.c **** *
 342:eInk Library/cy_eink_library.c **** *  X and Y locations used in this function are font coordinates, rather than the
 343:eInk Library/cy_eink_library.c **** *  pixel coordinates used in Cy_EINK_ImageToFrameBuffer() function. See the 
 344:eInk Library/cy_eink_library.c **** *  CY_EINK_fonts.h for details.
 345:eInk Library/cy_eink_library.c **** *
 346:eInk Library/cy_eink_library.c **** *  This function does not update the E-INK display. After frame buffer update,
 347:eInk Library/cy_eink_library.c **** *  use CY_EINK_ShowFrame() function to update the display if required.
 348:eInk Library/cy_eink_library.c **** *
 349:eInk Library/cy_eink_library.c **** * Parameters:
 350:eInk Library/cy_eink_library.c **** *  cy_eink_frame_t* frameBuffer : Pointer to the frame buffer array in RAM
 351:eInk Library/cy_eink_library.c **** *  char* string                 : Pointer to the string
 352:eInk Library/cy_eink_library.c **** *  cy_eink_font_t* fontInfo     : Structure that stores font information
 353:eInk Library/cy_eink_library.c **** *  uint8_t* fontCor             : Pointer to the 2-byte array containing X and
 354:eInk Library/cy_eink_library.c **** *                                 Y locations
 355:eInk Library/cy_eink_library.c **** *
 356:eInk Library/cy_eink_library.c **** * Return:
 357:eInk Library/cy_eink_library.c **** *  None
 358:eInk Library/cy_eink_library.c **** *
 359:eInk Library/cy_eink_library.c **** * Side Effects:
 360:eInk Library/cy_eink_library.c **** *  This is a blocking function that can take as many as 5808 RAM write cycles
ARM GAS  C:\Users\Lenovo\AppData\Local\Temp\cc1a9Imr.s 			page 13


 361:eInk Library/cy_eink_library.c **** *  to complete.
 362:eInk Library/cy_eink_library.c **** *
 363:eInk Library/cy_eink_library.c **** *******************************************************************************/
 364:eInk Library/cy_eink_library.c **** void Cy_EINK_TextToFrameBuffer(cy_eink_frame_t* frameBuffer, char* string, 
 365:eInk Library/cy_eink_library.c ****                             cy_eink_font_t* fontInfo, uint8_t* fontCor)
 366:eInk Library/cy_eink_library.c **** { 
 322              		.loc 1 366 0
 323              		.cfi_startproc
 324              		@ args = 0, pretend = 0, frame = 0
 325              		@ frame_needed = 0, uses_anonymous_args = 0
 326              	.LVL37:
 327 0000 2DE9F047 		push	{r4, r5, r6, r7, r8, r9, r10, lr}
 328              		.cfi_def_cfa_offset 32
 329              		.cfi_offset 4, -32
 330              		.cfi_offset 5, -28
 331              		.cfi_offset 6, -24
 332              		.cfi_offset 7, -20
 333              		.cfi_offset 8, -16
 334              		.cfi_offset 9, -12
 335              		.cfi_offset 10, -8
 336              		.cfi_offset 14, -4
 337 0004 8A46     		mov	r10, r1
 338              	.LVL38:
 367:eInk Library/cy_eink_library.c ****     /* Pointer variable for current character under conversion */
 368:eInk Library/cy_eink_library.c ****     char* currentChar;
 369:eInk Library/cy_eink_library.c ****     
 370:eInk Library/cy_eink_library.c ****     /* Variable for storing the location in the frame buffer to which 
 371:eInk Library/cy_eink_library.c ****        the font data is printed */
 372:eInk Library/cy_eink_library.c ****     uint16_t printLocation;
 373:eInk Library/cy_eink_library.c ****     /* Variable for storing the character location in the font */
 374:eInk Library/cy_eink_library.c ****     uint16_t charLocation;
 375:eInk Library/cy_eink_library.c ****     
 376:eInk Library/cy_eink_library.c ****     /* Variable that stores the pixel data byte location in the frame 
 377:eInk Library/cy_eink_library.c ****        buffer */
 378:eInk Library/cy_eink_library.c ****     uint16_t frameByte;
 379:eInk Library/cy_eink_library.c ****     /* Variable that stores the pixel data byte location in the font array */
 380:eInk Library/cy_eink_library.c ****     uint16_t fontByte;
 381:eInk Library/cy_eink_library.c ****     
 382:eInk Library/cy_eink_library.c ****     /* Counter variable for the vertical loop */
 383:eInk Library/cy_eink_library.c ****     uint8_t verticalCounter;
 384:eInk Library/cy_eink_library.c ****     /* Counter variable for the horizontal loop */
 385:eInk Library/cy_eink_library.c ****     uint8_t horizontalCounter;
 386:eInk Library/cy_eink_library.c ****     
 387:eInk Library/cy_eink_library.c ****     /* Repeat this process until the null character of the string is reached */
 388:eInk Library/cy_eink_library.c ****     for (currentChar = string;  *currentChar != '\0'; currentChar++)
 339              		.loc 1 388 0
 340 0006 80E0     		b	.L29
 341              	.LVL39:
 342              	.L43:
 389:eInk Library/cy_eink_library.c ****     {
 390:eInk Library/cy_eink_library.c ****         /* Check if X and Y coordinates are between the font's max limits */
 391:eInk Library/cy_eink_library.c ****         if ((fontCor[CY_EINK_FONT_X] < (fontInfo->xSpan)) && 
 343              		.loc 1 391 0
 344 0008 1D78     		ldrb	r5, [r3]	@ zero_extendqisi2
 345 000a 167A     		ldrb	r6, [r2, #8]	@ zero_extendqisi2
 346 000c B542     		cmp	r5, r6
 347 000e 6AD2     		bcs	.L30
ARM GAS  C:\Users\Lenovo\AppData\Local\Temp\cc1a9Imr.s 			page 14


 392:eInk Library/cy_eink_library.c ****             (fontCor[CY_EINK_FONT_Y] < (fontInfo->ySpan)))
 348              		.loc 1 392 0 discriminator 1
 349 0010 5E78     		ldrb	r6, [r3, #1]	@ zero_extendqisi2
 350 0012 577A     		ldrb	r7, [r2, #9]	@ zero_extendqisi2
 391:eInk Library/cy_eink_library.c ****             (fontCor[CY_EINK_FONT_Y] < (fontInfo->ySpan)))
 351              		.loc 1 391 0 discriminator 1
 352 0014 BE42     		cmp	r6, r7
 353 0016 66D2     		bcs	.L30
 393:eInk Library/cy_eink_library.c ****         {
 394:eInk Library/cy_eink_library.c ****             /* Find the actual pixel location in the frame buffer where the
 395:eInk Library/cy_eink_library.c ****                pixel data should be copied */
 396:eInk Library/cy_eink_library.c ****             printLocation = (fontInfo->xOffset) + (fontCor[CY_EINK_FONT_X]   * 
 354              		.loc 1 396 0
 355 0018 1779     		ldrb	r7, [r2, #4]	@ zero_extendqisi2
 397:eInk Library/cy_eink_library.c ****                             (fontInfo->xSize))  + (((fontCor[CY_EINK_FONT_Y] * 
 398:eInk Library/cy_eink_library.c ****                             (fontInfo->ySize))  + (fontInfo->yOffset))    * 
 356              		.loc 1 398 0
 357 001a 92F807E0 		ldrb	lr, [r2, #7]	@ zero_extendqisi2
 358 001e 92F805C0 		ldrb	ip, [r2, #5]	@ zero_extendqisi2
 359 0022 0EFB06C6 		mla	r6, lr, r6, ip
 396:eInk Library/cy_eink_library.c ****                             (fontInfo->xSize))  + (((fontCor[CY_EINK_FONT_Y] * 
 360              		.loc 1 396 0
 361 0026 92F806C0 		ldrb	ip, [r2, #6]	@ zero_extendqisi2
 362 002a 06EB4616 		add	r6, r6, r6, lsl #5
 363 002e 05FB0C65 		mla	r5, r5, ip, r6
 364 0032 3D44     		add	r5, r5, r7
 365 0034 AFB2     		uxth	r7, r5
 366              	.LVL40:
 399:eInk Library/cy_eink_library.c ****                              PV_EINK_HORIZONTAL_SIZE);
 400:eInk Library/cy_eink_library.c ****             
 401:eInk Library/cy_eink_library.c ****             /* Check if the current character is a printable ASCII character 
 402:eInk Library/cy_eink_library.c ****                between "!" and "~" */
 403:eInk Library/cy_eink_library.c ****             if ((*currentChar <= CY_EINK_ASCII_MAX) &&
 367              		.loc 1 403 0
 368 0036 A4F12105 		sub	r5, r4, #33
 369 003a EDB2     		uxtb	r5, r5
 370 003c 5D2D     		cmp	r5, #93
 371 003e 4ED8     		bhi	.L44
 404:eInk Library/cy_eink_library.c ****                 (*currentChar >= CY_EINK_ASCII_MIN))
 405:eInk Library/cy_eink_library.c ****             {
 406:eInk Library/cy_eink_library.c ****                 /* Find the location of pixel data corresponding to the 
 407:eInk Library/cy_eink_library.c ****                    current character from the font array */
 408:eInk Library/cy_eink_library.c ****                 charLocation = (*currentChar - CY_EINK_ASCII_MIN) *
 372              		.loc 1 408 0
 373 0040 213C     		subs	r4, r4, #33
 374 0042 1EFB0CFE 		smulbb	lr, lr, ip
 375 0046 1EFB04FE 		smulbb	lr, lr, r4
 376 004a 1FFA8EFC 		uxth	ip, lr
 377              	.LVL41:
 409:eInk Library/cy_eink_library.c ****                                ((fontInfo->ySize) * (fontInfo->xSize));
 410:eInk Library/cy_eink_library.c ****                 
 411:eInk Library/cy_eink_library.c ****                 /* Vertical copying loop */
 412:eInk Library/cy_eink_library.c ****                 for (verticalCounter = 0; verticalCounter < (fontInfo->ySize); 
 378              		.loc 1 412 0
 379 004e 4FF0000E 		mov	lr, #0
 380 0052 23E0     		b	.L32
 381              	.LVL42:
ARM GAS  C:\Users\Lenovo\AppData\Local\Temp\cc1a9Imr.s 			page 15


 382              	.L35:
 413:eInk Library/cy_eink_library.c ****                      verticalCounter++)
 414:eInk Library/cy_eink_library.c ****                 {
 415:eInk Library/cy_eink_library.c ****                     /* Horizontal copying loop */
 416:eInk Library/cy_eink_library.c ****                     for (horizontalCounter = 0; 
 417:eInk Library/cy_eink_library.c ****                          horizontalCounter < (fontInfo->xSize); 
 418:eInk Library/cy_eink_library.c ****                          horizontalCounter++)
 419:eInk Library/cy_eink_library.c ****                     {
 420:eInk Library/cy_eink_library.c ****                         /* Calculate the current pixel data byte location of 
 421:eInk Library/cy_eink_library.c ****                            the frame buffer */
 422:eInk Library/cy_eink_library.c ****                         frameByte = horizontalCounter + (printLocation +
 383              		.loc 1 422 0
 384 0054 1FFA86F8 		uxth	r8, r6
 385 0058 1FFA8EF4 		uxth	r4, lr
 386 005c 04EB4415 		add	r5, r4, r4, lsl #5
 387 0060 3D44     		add	r5, r5, r7
 388 0062 4544     		add	r5, r5, r8
 389 0064 ADB2     		uxth	r5, r5
 390              	.LVL43:
 423:eInk Library/cy_eink_library.c ****                                     (PV_EINK_HORIZONTAL_SIZE * verticalCounter));
 424:eInk Library/cy_eink_library.c ****                         
 425:eInk Library/cy_eink_library.c ****                         /* Calculate the current pixel data byte location of 
 426:eInk Library/cy_eink_library.c ****                            the font */
 427:eInk Library/cy_eink_library.c ****                         fontByte = charLocation + (verticalCounter * 
 391              		.loc 1 427 0
 392 0066 09FB04C4 		mla	r4, r9, r4, ip
 393 006a 4444     		add	r4, r4, r8
 394 006c A4B2     		uxth	r4, r4
 395              	.LVL44:
 428:eInk Library/cy_eink_library.c ****                                    (fontInfo->xSize)) + horizontalCounter;
 429:eInk Library/cy_eink_library.c ****                         
 430:eInk Library/cy_eink_library.c ****                         /* Copy the pixel data as is for black font on white 
 431:eInk Library/cy_eink_library.c ****                            background */
 432:eInk Library/cy_eink_library.c ****                         if ((fontInfo->color) == CY_EINK_WHITE_BACKGROUND)
 396              		.loc 1 432 0
 397 006e 917A     		ldrb	r1, [r2, #10]	@ zero_extendqisi2
 398 0070 21B1     		cbz	r1, .L33
 433:eInk Library/cy_eink_library.c ****                         {
 434:eInk Library/cy_eink_library.c ****                             frameBuffer[frameByte] = ~(fontInfo->fontData
 435:eInk Library/cy_eink_library.c ****                                                                  [fontByte]);
 399              		.loc 1 435 0
 400 0072 1168     		ldr	r1, [r2]
 401 0074 0C5D     		ldrb	r4, [r1, r4]	@ zero_extendqisi2
 402              	.LVL45:
 434:eInk Library/cy_eink_library.c ****                                                                  [fontByte]);
 403              		.loc 1 434 0
 404 0076 E443     		mvns	r4, r4
 405 0078 4455     		strb	r4, [r0, r5]
 406 007a 03E0     		b	.L34
 407              	.LVL46:
 408              	.L33:
 436:eInk Library/cy_eink_library.c ****                         }
 437:eInk Library/cy_eink_library.c ****                         /* Copy the inverted pixel data for white font on black
 438:eInk Library/cy_eink_library.c ****                            background */
 439:eInk Library/cy_eink_library.c ****                         else if ((fontInfo->color) == CY_EINK_BLACK_BACKGROUND)
 409              		.loc 1 439 0
 410 007c 11B9     		cbnz	r1, .L34
ARM GAS  C:\Users\Lenovo\AppData\Local\Temp\cc1a9Imr.s 			page 16


 440:eInk Library/cy_eink_library.c ****                         {
 441:eInk Library/cy_eink_library.c ****                             frameBuffer[frameByte] = fontInfo->fontData
 442:eInk Library/cy_eink_library.c ****                                                               [fontByte];
 411              		.loc 1 442 0
 412 007e 1168     		ldr	r1, [r2]
 413 0080 0C5D     		ldrb	r4, [r1, r4]	@ zero_extendqisi2
 414              	.LVL47:
 441:eInk Library/cy_eink_library.c ****                                                               [fontByte];
 415              		.loc 1 441 0
 416 0082 4455     		strb	r4, [r0, r5]
 417              	.L34:
 418:eInk Library/cy_eink_library.c ****                     {
 418              		.loc 1 418 0
 419 0084 0136     		adds	r6, r6, #1
 420              	.LVL48:
 421 0086 F6B2     		uxtb	r6, r6
 422              	.LVL49:
 423 0088 00E0     		b	.L36
 424              	.LVL50:
 425              	.L45:
 426 008a 0026     		movs	r6, #0
 427              	.L36:
 428              	.LVL51:
 417:eInk Library/cy_eink_library.c ****                          horizontalCounter++)
 429              		.loc 1 417 0 discriminator 1
 430 008c 92F80690 		ldrb	r9, [r2, #6]	@ zero_extendqisi2
 416:eInk Library/cy_eink_library.c ****                          horizontalCounter < (fontInfo->xSize); 
 431              		.loc 1 416 0 discriminator 1
 432 0090 4E45     		cmp	r6, r9
 433 0092 DFD3     		bcc	.L35
 413:eInk Library/cy_eink_library.c ****                 {
 434              		.loc 1 413 0
 435 0094 0EF1010E 		add	lr, lr, #1
 436              	.LVL52:
 437 0098 5FFA8EFE 		uxtb	lr, lr
 438              	.LVL53:
 439              	.L32:
 412:eInk Library/cy_eink_library.c ****                      verticalCounter++)
 440              		.loc 1 412 0 discriminator 1
 441 009c D479     		ldrb	r4, [r2, #7]	@ zero_extendqisi2
 442 009e A645     		cmp	lr, r4
 443 00a0 F3D3     		bcc	.L45
 444 00a2 20E0     		b	.L30
 445              	.LVL54:
 446              	.L39:
 443:eInk Library/cy_eink_library.c ****                         }
 444:eInk Library/cy_eink_library.c ****                         else
 445:eInk Library/cy_eink_library.c ****                         {
 446:eInk Library/cy_eink_library.c ****                         }
 447:eInk Library/cy_eink_library.c ****                     }
 448:eInk Library/cy_eink_library.c ****                 }
 449:eInk Library/cy_eink_library.c ****             }
 450:eInk Library/cy_eink_library.c ****             /* For space and non-printable ASCII characters */
 451:eInk Library/cy_eink_library.c ****             else
 452:eInk Library/cy_eink_library.c ****             {
 453:eInk Library/cy_eink_library.c ****                 /* Vertical copying loop */
 454:eInk Library/cy_eink_library.c ****                 for (verticalCounter = 0; 
ARM GAS  C:\Users\Lenovo\AppData\Local\Temp\cc1a9Imr.s 			page 17


 455:eInk Library/cy_eink_library.c ****                      verticalCounter < (fontInfo->ySize); 
 456:eInk Library/cy_eink_library.c ****                      verticalCounter++)
 457:eInk Library/cy_eink_library.c ****                 {
 458:eInk Library/cy_eink_library.c ****                     /* Horizontal copying loop */
 459:eInk Library/cy_eink_library.c ****                     for (horizontalCounter = 0; 
 460:eInk Library/cy_eink_library.c ****                          horizontalCounter < (fontInfo->xSize);
 461:eInk Library/cy_eink_library.c ****                          horizontalCounter++)
 462:eInk Library/cy_eink_library.c ****                     {
 463:eInk Library/cy_eink_library.c ****                         /* Calculate the current pixel data byte location of 
 464:eInk Library/cy_eink_library.c ****                            the frame buffer */
 465:eInk Library/cy_eink_library.c ****                         frameByte = horizontalCounter + (printLocation +
 447              		.loc 1 465 0
 448 00a4 06EB4614 		add	r4, r6, r6, lsl #5
 449 00a8 3C44     		add	r4, r4, r7
 450 00aa 2C44     		add	r4, r4, r5
 451 00ac A4B2     		uxth	r4, r4
 452              	.LVL55:
 466:eInk Library/cy_eink_library.c ****                                     (PV_EINK_HORIZONTAL_SIZE * verticalCounter));
 467:eInk Library/cy_eink_library.c ****                         
 468:eInk Library/cy_eink_library.c ****                         /* Copy white pixels to create a space for fonts with 
 469:eInk Library/cy_eink_library.c ****                            white background */
 470:eInk Library/cy_eink_library.c ****                         if ((fontInfo->color) == CY_EINK_WHITE_BACKGROUND)
 453              		.loc 1 470 0
 454 00ae 92F80AE0 		ldrb	lr, [r2, #10]	@ zero_extendqisi2
 455 00b2 BEF1000F 		cmp	lr, #0
 456 00b6 04D0     		beq	.L37
 471:eInk Library/cy_eink_library.c ****                         {
 472:eInk Library/cy_eink_library.c ****                             frameBuffer[frameByte] = CY_EINK_CLEAR_TO_WHITE;
 457              		.loc 1 472 0
 458 00b8 4FF0FF0E 		mov	lr, #255
 459 00bc 00F804E0 		strb	lr, [r0, r4]
 460 00c0 03E0     		b	.L38
 461              	.L37:
 473:eInk Library/cy_eink_library.c ****                         }
 474:eInk Library/cy_eink_library.c ****                         /* Copy black pixels to create a space for fonts with 
 475:eInk Library/cy_eink_library.c ****                            black background */
 476:eInk Library/cy_eink_library.c ****                         else
 477:eInk Library/cy_eink_library.c ****                         {
 478:eInk Library/cy_eink_library.c ****                             frameBuffer[frameByte] = CY_EINK_CLEAR_TO_BLACK;
 462              		.loc 1 478 0
 463 00c2 4FF0000E 		mov	lr, #0
 464 00c6 00F804E0 		strb	lr, [r0, r4]
 465              	.L38:
 461:eInk Library/cy_eink_library.c ****                     {
 466              		.loc 1 461 0
 467 00ca 0135     		adds	r5, r5, #1
 468              	.LVL56:
 469 00cc EDB2     		uxtb	r5, r5
 470              	.LVL57:
 471 00ce 00E0     		b	.L40
 472              	.LVL58:
 473              	.L46:
 474 00d0 0025     		movs	r5, #0
 475              	.L40:
 476              	.LVL59:
 460:eInk Library/cy_eink_library.c ****                          horizontalCounter++)
 477              		.loc 1 460 0 discriminator 1
ARM GAS  C:\Users\Lenovo\AppData\Local\Temp\cc1a9Imr.s 			page 18


 478 00d2 9479     		ldrb	r4, [r2, #6]	@ zero_extendqisi2
 459:eInk Library/cy_eink_library.c ****                          horizontalCounter < (fontInfo->xSize);
 479              		.loc 1 459 0 discriminator 1
 480 00d4 A542     		cmp	r5, r4
 481 00d6 E5D3     		bcc	.L39
 456:eInk Library/cy_eink_library.c ****                 {
 482              		.loc 1 456 0
 483 00d8 0136     		adds	r6, r6, #1
 484              	.LVL60:
 485 00da F6B2     		uxtb	r6, r6
 486              	.LVL61:
 487 00dc 00E0     		b	.L31
 488              	.LVL62:
 489              	.L44:
 490 00de 0026     		movs	r6, #0
 491              	.L31:
 492              	.LVL63:
 455:eInk Library/cy_eink_library.c ****                      verticalCounter++)
 493              		.loc 1 455 0 discriminator 1
 494 00e0 D479     		ldrb	r4, [r2, #7]	@ zero_extendqisi2
 454:eInk Library/cy_eink_library.c ****                      verticalCounter < (fontInfo->ySize); 
 495              		.loc 1 454 0 discriminator 1
 496 00e2 A642     		cmp	r6, r4
 497 00e4 F4D3     		bcc	.L46
 498              	.LVL64:
 499              	.L30:
 479:eInk Library/cy_eink_library.c ****                         }
 480:eInk Library/cy_eink_library.c ****                     }
 481:eInk Library/cy_eink_library.c ****                 }
 482:eInk Library/cy_eink_library.c ****             }
 483:eInk Library/cy_eink_library.c ****         }
 484:eInk Library/cy_eink_library.c ****         /* Move on to the next character by incrementing the horizontal
 485:eInk Library/cy_eink_library.c ****            location */
 486:eInk Library/cy_eink_library.c ****         fontCor[CY_EINK_FONT_X]++;
 500              		.loc 1 486 0
 501 00e6 1C78     		ldrb	r4, [r3]	@ zero_extendqisi2
 502 00e8 0134     		adds	r4, r4, #1
 503 00ea E4B2     		uxtb	r4, r4
 504 00ec 1C70     		strb	r4, [r3]
 487:eInk Library/cy_eink_library.c ****         
 488:eInk Library/cy_eink_library.c ****         /* Reset the X location and increment the Y location if the X span 
 489:eInk Library/cy_eink_library.c ****            is reached */
 490:eInk Library/cy_eink_library.c ****         if (fontCor[CY_EINK_FONT_X] >= (fontInfo->xSpan))
 505              		.loc 1 490 0
 506 00ee 157A     		ldrb	r5, [r2, #8]	@ zero_extendqisi2
 507 00f0 AC42     		cmp	r4, r5
 508 00f2 04D3     		bcc	.L41
 491:eInk Library/cy_eink_library.c ****         {
 492:eInk Library/cy_eink_library.c ****             fontCor[CY_EINK_FONT_X] = 0;
 509              		.loc 1 492 0
 510 00f4 0024     		movs	r4, #0
 511 00f6 1C70     		strb	r4, [r3]
 493:eInk Library/cy_eink_library.c ****             fontCor[CY_EINK_FONT_Y]++;
 512              		.loc 1 493 0
 513 00f8 5C78     		ldrb	r4, [r3, #1]	@ zero_extendqisi2
 514 00fa 0134     		adds	r4, r4, #1
 515 00fc 5C70     		strb	r4, [r3, #1]
ARM GAS  C:\Users\Lenovo\AppData\Local\Temp\cc1a9Imr.s 			page 19


 516              	.L41:
 494:eInk Library/cy_eink_library.c ****         }
 495:eInk Library/cy_eink_library.c ****         /* End the function if the Y span is reached */
 496:eInk Library/cy_eink_library.c ****         if (fontCor[CY_EINK_FONT_Y] > (fontInfo->ySpan))
 517              		.loc 1 496 0
 518 00fe 5D78     		ldrb	r5, [r3, #1]	@ zero_extendqisi2
 519 0100 547A     		ldrb	r4, [r2, #9]	@ zero_extendqisi2
 520 0102 A542     		cmp	r5, r4
 521 0104 06D8     		bhi	.L28
 388:eInk Library/cy_eink_library.c ****     {
 522              		.loc 1 388 0 discriminator 2
 523 0106 0AF1010A 		add	r10, r10, #1
 524              	.LVL65:
 525              	.L29:
 388:eInk Library/cy_eink_library.c ****     {
 526              		.loc 1 388 0 is_stmt 0 discriminator 1
 527 010a 9AF80040 		ldrb	r4, [r10]	@ zero_extendqisi2
 528 010e 002C     		cmp	r4, #0
 529 0110 7FF47AAF 		bne	.L43
 530              	.L28:
 531 0114 BDE8F087 		pop	{r4, r5, r6, r7, r8, r9, r10, pc}
 532              		.cfi_endproc
 533              	.LFE576:
 534              		.size	Cy_EINK_TextToFrameBuffer, .-Cy_EINK_TextToFrameBuffer
 535              		.text
 536              	.Letext0:
 537              		.file 2 "d:\\psoc creator\\4.4\\psoc creator\\import\\gnu\\arm\\5.4.1\\arm-none-eabi\\include\\mac
 538              		.file 3 "d:\\psoc creator\\4.4\\psoc creator\\import\\gnu\\arm\\5.4.1\\arm-none-eabi\\include\\sys
 539              		.file 4 "Generated_Source\\PSoC6\\pdl\\drivers/peripheral/tcpwm/cy_tcpwm_counter.h"
 540              		.file 5 "Generated_Source\\PSoC6\\pdl\\drivers/peripheral/tcpwm/cy_tcpwm_pwm.h"
 541              		.file 6 "Generated_Source\\PSoC6\\pdl\\drivers/peripheral/scb/cy_scb_spi.h"
 542              		.file 7 "eInk Library\\cy_eink_fonts.h"
 543              		.file 8 "eInk Library\\pervasive_eink_hardware_driver.h"
 544              		.file 9 "eInk Library\\cy_eink_library.h"
 545              		.file 10 "Generated_Source\\PSoC6\\pdl\\cmsis/include/core_cm4.h"
 546              		.file 11 "Generated_Source\\PSoC6/CY_EINK_SPIM.h"
 547              		.file 12 "Generated_Source\\PSoC6/CY_EINK_Timer.h"
 548              		.file 13 "Generated_Source\\PSoC6/PWM_1.h"