ARM GAS  C:\Users\Lenovo\AppData\Local\Temp\cc8eKevs.s 			page 1


   1              		.syntax unified
   2              		.cpu cortex-m0
   3              		.fpu softvfp
   4              		.eabi_attribute 20, 1
   5              		.eabi_attribute 21, 1
   6              		.eabi_attribute 23, 3
   7              		.eabi_attribute 24, 1
   8              		.eabi_attribute 25, 1
   9              		.eabi_attribute 26, 1
  10              		.eabi_attribute 30, 1
  11              		.eabi_attribute 34, 0
  12              		.eabi_attribute 18, 4
  13              		.thumb
  14              		.syntax unified
  15              		.file	"main.c"
  16              		.text
  17              	.Ltext0:
  18              		.cfi_sections	.debug_frame
  19              		.section	.text.GPIOIsrHandler,"ax",%progbits
  20              		.align	2
  21              		.global	GPIOIsrHandler
  22              		.code	16
  23              		.thumb_func
  24              		.type	GPIOIsrHandler, %function
  25              	GPIOIsrHandler:
  26              	.LFB33:
  27              		.file 1 "main.c"
   1:main.c        **** /* ========================================
   2:main.c        ****  *
   3:main.c        ****  * Copyright YOUR COMPANY, THE YEAR
   4:main.c        ****  * All Rights Reserved
   5:main.c        ****  * UNPUBLISHED, LICENSED SOFTWARE.
   6:main.c        ****  *
   7:main.c        ****  * CONFIDENTIAL AND PROPRIETARY INFORMATION
   8:main.c        ****  * WHICH IS THE PROPERTY OF your company.
   9:main.c        ****  *
  10:main.c        ****  * ========================================
  11:main.c        **** */
  12:main.c        **** #include "project.h"
  13:main.c        **** #define DEFAULT_PRIORITY                    (3u)
  14:main.c        **** #define HIGHER_PRIORITY                     (2u)
  15:main.c        **** #define LIGHT_OFF                       (1u)
  16:main.c        **** #define LIGHT_ON                        (0u)
  17:main.c        **** /* Interrupt prototypes */
  18:main.c        **** CY_ISR_PROTO(GPIOIsrHandler);
  19:main.c        **** CY_ISR_PROTO(GPIOIsrHandler_0);
  20:main.c        **** 
  21:main.c        **** int8 K=1;
  22:main.c        **** int main (void){
  23:main.c        **** CyGlobalIntEnable;
  24:main.c        ****     Clock_Start();
  25:main.c        ****     UART_Start();
  26:main.c        **** 
  27:main.c        ****     UART_UartPutString("FEI_32_Tyshchenko_Anna \r\n");
  28:main.c        ****     UART_UartPutString("Interrupt Apparatus + UART \r\n");
  29:main.c        ****     UART_UartPutString("NO Alarm \r\n"); 
  30:main.c        ****         PWM_Stop();
ARM GAS  C:\Users\Lenovo\AppData\Local\Temp\cc8eKevs.s 			page 2


  31:main.c        ****     Pin_Green_Write(LIGHT_ON);
  32:main.c        ****     Pin_Blue_Write(LIGHT_OFF);
  33:main.c        ****     
  34:main.c        ****     for(;;){
  35:main.c        ****     if (K==1){
  36:main.c        ****     isr_GPIO_StartEx(GPIOIsrHandler);
  37:main.c        ****     isr_GPIO_SetPriority(DEFAULT_PRIORITY);
  38:main.c        ****     };
  39:main.c        ****     if (K==0){
  40:main.c        ****     isr_GPIO_StartEx(GPIOIsrHandler_0);
  41:main.c        ****     isr_GPIO_SetPriority(DEFAULT_PRIORITY);
  42:main.c        ****     };
  43:main.c        ****     }
  44:main.c        ****     
  45:main.c        **** }
  46:main.c        **** 
  47:main.c        **** CY_ISR(GPIOIsrHandler){
  28              		.loc 1 47 0
  29              		.cfi_startproc
  30              		@ args = 0, pretend = 0, frame = 0
  31              		@ frame_needed = 0, uses_anonymous_args = 0
  32 0000 10B5     		push	{r4, lr}
  33              		.cfi_def_cfa_offset 8
  34              		.cfi_offset 4, -8
  35              		.cfi_offset 14, -4
  48:main.c        ****  Pin_Green_Write(LIGHT_OFF);
  36              		.loc 1 48 0
  37 0002 0120     		movs	r0, #1
  38 0004 FFF7FEFF 		bl	Pin_Green_Write
  39              	.LVL0:
  49:main.c        ****     Pin_Blue_Write(LIGHT_OFF);
  40              		.loc 1 49 0
  41 0008 0120     		movs	r0, #1
  42 000a FFF7FEFF 		bl	Pin_Blue_Write
  43              	.LVL1:
  50:main.c        ****     PWM_Start();
  44              		.loc 1 50 0
  45 000e FFF7FEFF 		bl	PWM_Start
  46              	.LVL2:
  51:main.c        ****     isr_GPIO_ClearPending();
  47              		.loc 1 51 0
  48 0012 FFF7FEFF 		bl	isr_GPIO_ClearPending
  49              	.LVL3:
  52:main.c        ****     Pin_SW2_ClearInterrupt();
  50              		.loc 1 52 0
  51 0016 FFF7FEFF 		bl	Pin_SW2_ClearInterrupt
  52              	.LVL4:
  53:main.c        ****      UART_UartPutString("Alarm \r\n"); 
  53              		.loc 1 53 0
  54 001a 0348     		ldr	r0, .L2
  55 001c FFF7FEFF 		bl	UART_UartPutString
  56              	.LVL5:
  54:main.c        ****     K=0;
  57              		.loc 1 54 0
  58 0020 0022     		movs	r2, #0
  59 0022 024B     		ldr	r3, .L2+4
  60 0024 1A70     		strb	r2, [r3]
ARM GAS  C:\Users\Lenovo\AppData\Local\Temp\cc8eKevs.s 			page 3


  55:main.c        **** }
  61              		.loc 1 55 0
  62              		@ sp needed
  63 0026 10BD     		pop	{r4, pc}
  64              	.L3:
  65              		.align	2
  66              	.L2:
  67 0028 00000000 		.word	.LC0
  68 002c 00000000 		.word	.LANCHOR0
  69              		.cfi_endproc
  70              	.LFE33:
  71              		.size	GPIOIsrHandler, .-GPIOIsrHandler
  72              		.section	.text.GPIOIsrHandler_0,"ax",%progbits
  73              		.align	2
  74              		.global	GPIOIsrHandler_0
  75              		.code	16
  76              		.thumb_func
  77              		.type	GPIOIsrHandler_0, %function
  78              	GPIOIsrHandler_0:
  79              	.LFB34:
  56:main.c        **** 
  57:main.c        **** 
  58:main.c        **** CY_ISR(GPIOIsrHandler_0){
  80              		.loc 1 58 0
  81              		.cfi_startproc
  82              		@ args = 0, pretend = 0, frame = 0
  83              		@ frame_needed = 0, uses_anonymous_args = 0
  84 0000 10B5     		push	{r4, lr}
  85              		.cfi_def_cfa_offset 8
  86              		.cfi_offset 4, -8
  87              		.cfi_offset 14, -4
  59:main.c        ****  Pin_Green_Write(LIGHT_ON);
  88              		.loc 1 59 0
  89 0002 0020     		movs	r0, #0
  90 0004 FFF7FEFF 		bl	Pin_Green_Write
  91              	.LVL6:
  60:main.c        ****     Pin_Blue_Write(LIGHT_ON);
  92              		.loc 1 60 0
  93 0008 0020     		movs	r0, #0
  94 000a FFF7FEFF 		bl	Pin_Blue_Write
  95              	.LVL7:
  61:main.c        ****     PWM_Stop();
  96              		.loc 1 61 0
  97 000e FFF7FEFF 		bl	PWM_Stop
  98              	.LVL8:
  62:main.c        ****     isr_GPIO_ClearPending();
  99              		.loc 1 62 0
 100 0012 FFF7FEFF 		bl	isr_GPIO_ClearPending
 101              	.LVL9:
  63:main.c        ****     Pin_SW2_ClearInterrupt();
 102              		.loc 1 63 0
 103 0016 FFF7FEFF 		bl	Pin_SW2_ClearInterrupt
 104              	.LVL10:
  64:main.c        ****     UART_UartPutString(" NO Alarm \r\n"); 
 105              		.loc 1 64 0
 106 001a 0348     		ldr	r0, .L5
 107 001c FFF7FEFF 		bl	UART_UartPutString
ARM GAS  C:\Users\Lenovo\AppData\Local\Temp\cc8eKevs.s 			page 4


 108              	.LVL11:
  65:main.c        ****     K=1;
 109              		.loc 1 65 0
 110 0020 0122     		movs	r2, #1
 111 0022 024B     		ldr	r3, .L5+4
 112 0024 1A70     		strb	r2, [r3]
  66:main.c        **** }...
 113              		.loc 1 66 0
 114              		@ sp needed
 115 0026 10BD     		pop	{r4, pc}
 116              	.L6:
 117              		.align	2
 118              	.L5:
 119 0028 0C000000 		.word	.LC3
 120 002c 00000000 		.word	.LANCHOR0
 121              		.cfi_endproc
 122              	.LFE34:
 123              		.size	GPIOIsrHandler_0, .-GPIOIsrHandler_0
 124              		.section	.text.main,"ax",%progbits
 125              		.align	2
 126              		.global	main
 127              		.code	16
 128              		.thumb_func
 129              		.type	main, %function
 130              	main:
 131              	.LFB32:
  22:main.c        **** int main (void){
 132              		.loc 1 22 0
 133              		.cfi_startproc
 134              		@ Volatile: function does not return.
 135              		@ args = 0, pretend = 0, frame = 0
 136              		@ frame_needed = 0, uses_anonymous_args = 0
 137 0000 10B5     		push	{r4, lr}
 138              		.cfi_def_cfa_offset 8
 139              		.cfi_offset 4, -8
 140              		.cfi_offset 14, -4
  23:main.c        **** CyGlobalIntEnable;
 141              		.loc 1 23 0
 142              		.syntax divided
 143              	@ 23 "main.c" 1
 144 0002 62B6     		CPSIE   i
 145              	@ 0 "" 2
  24:main.c        ****     Clock_Start();
 146              		.loc 1 24 0
 147              		.thumb
 148              		.syntax unified
 149 0004 FFF7FEFF 		bl	Clock_Start
 150              	.LVL12:
  25:main.c        ****     UART_Start();
 151              		.loc 1 25 0
 152 0008 FFF7FEFF 		bl	UART_Start
 153              	.LVL13:
  27:main.c        ****     UART_UartPutString("FEI_32_Tyshchenko_Anna \r\n");
 154              		.loc 1 27 0
 155 000c 1348     		ldr	r0, .L11
 156 000e FFF7FEFF 		bl	UART_UartPutString
 157              	.LVL14:
ARM GAS  C:\Users\Lenovo\AppData\Local\Temp\cc8eKevs.s 			page 5


  28:main.c        ****     UART_UartPutString("Interrupt Apparatus + UART \r\n");
 158              		.loc 1 28 0
 159 0012 1348     		ldr	r0, .L11+4
 160 0014 FFF7FEFF 		bl	UART_UartPutString
 161              	.LVL15:
  29:main.c        ****     UART_UartPutString("NO Alarm \r\n"); 
 162              		.loc 1 29 0
 163 0018 1248     		ldr	r0, .L11+8
 164 001a FFF7FEFF 		bl	UART_UartPutString
 165              	.LVL16:
  30:main.c        ****         PWM_Stop();
 166              		.loc 1 30 0
 167 001e FFF7FEFF 		bl	PWM_Stop
 168              	.LVL17:
  31:main.c        ****     Pin_Green_Write(LIGHT_ON);
 169              		.loc 1 31 0
 170 0022 0020     		movs	r0, #0
 171 0024 FFF7FEFF 		bl	Pin_Green_Write
 172              	.LVL18:
  32:main.c        ****     Pin_Blue_Write(LIGHT_OFF);
 173              		.loc 1 32 0
 174 0028 0120     		movs	r0, #1
 175 002a FFF7FEFF 		bl	Pin_Blue_Write
 176              	.LVL19:
 177              	.L9:
  35:main.c        ****     if (K==1){
 178              		.loc 1 35 0
 179 002e 0E4B     		ldr	r3, .L11+12
 180 0030 1B78     		ldrb	r3, [r3]
 181 0032 5BB2     		sxtb	r3, r3
 182 0034 012B     		cmp	r3, #1
 183 0036 05D1     		bne	.L8
  36:main.c        ****     isr_GPIO_StartEx(GPIOIsrHandler);
 184              		.loc 1 36 0
 185 0038 0C48     		ldr	r0, .L11+16
 186 003a FFF7FEFF 		bl	isr_GPIO_StartEx
 187              	.LVL20:
  37:main.c        ****     isr_GPIO_SetPriority(DEFAULT_PRIORITY);
 188              		.loc 1 37 0
 189 003e 0320     		movs	r0, #3
 190 0040 FFF7FEFF 		bl	isr_GPIO_SetPriority
 191              	.LVL21:
 192              	.L8:
  39:main.c        ****     if (K==0){
 193              		.loc 1 39 0
 194 0044 084B     		ldr	r3, .L11+12
 195 0046 1B78     		ldrb	r3, [r3]
 196 0048 5BB2     		sxtb	r3, r3
 197 004a 002B     		cmp	r3, #0
 198 004c EFD1     		bne	.L9
  40:main.c        ****     isr_GPIO_StartEx(GPIOIsrHandler_0);
 199              		.loc 1 40 0
 200 004e 0848     		ldr	r0, .L11+20
 201 0050 FFF7FEFF 		bl	isr_GPIO_StartEx
 202              	.LVL22:
  41:main.c        ****     isr_GPIO_SetPriority(DEFAULT_PRIORITY);
 203              		.loc 1 41 0
ARM GAS  C:\Users\Lenovo\AppData\Local\Temp\cc8eKevs.s 			page 6


 204 0054 0320     		movs	r0, #3
 205 0056 FFF7FEFF 		bl	isr_GPIO_SetPriority
 206              	.LVL23:
 207 005a E8E7     		b	.L9
 208              	.L12:
 209              		.align	2
 210              	.L11:
 211 005c 1C000000 		.word	.LC6
 212 0060 38000000 		.word	.LC8
 213 0064 58000000 		.word	.LC10
 214 0068 00000000 		.word	.LANCHOR0
 215 006c 00000000 		.word	GPIOIsrHandler
 216 0070 00000000 		.word	GPIOIsrHandler_0
 217              		.cfi_endproc
 218              	.LFE32:
 219              		.size	main, .-main
 220              		.global	K
 221              		.data
 222              		.set	.LANCHOR0,. + 0
 223              		.type	K, %object
 224              		.size	K, 1
 225              	K:
 226 0000 01       		.byte	1
 227              		.section	.rodata.str1.4,"aMS",%progbits,1
 228              		.align	2
 229              	.LC0:
 230 0000 416C6172 		.ascii	"Alarm \015\012\000"
 230      6D200D0A 
 230      00
 231 0009 000000   		.space	3
 232              	.LC3:
 233 000c 204E4F20 		.ascii	" NO Alarm \015\012\000"
 233      416C6172 
 233      6D200D0A 
 233      00
 234 0019 000000   		.space	3
 235              	.LC6:
 236 001c 4645495F 		.ascii	"FEI_32_Tyshchenko_Anna \015\012\000"
 236      33325F54 
 236      79736863 
 236      68656E6B 
 236      6F5F416E 
 237 0036 0000     		.space	2
 238              	.LC8:
 239 0038 496E7465 		.ascii	"Interrupt Apparatus + UART \015\012\000"
 239      72727570 
 239      74204170 
 239      70617261 
 239      74757320 
 240 0056 0000     		.space	2
 241              	.LC10:
 242 0058 4E4F2041 		.ascii	"NO Alarm \015\012\000"
 242      6C61726D 
 242      200D0A00 
 243              		.text
 244              	.Letext0:
 245              		.file 2 "Generated_Source\\PSoC4/Pin_Green.h"
ARM GAS  C:\Users\Lenovo\AppData\Local\Temp\cc8eKevs.s 			page 7


 246              		.file 3 "Generated_Source\\PSoC4/Pin_Blue.h"
 247              		.file 4 "Generated_Source\\PSoC4/PWM.h"
 248              		.file 5 "Generated_Source\\PSoC4/isr_GPIO.h"
 249              		.file 6 "Generated_Source\\PSoC4/Pin_SW2.h"
 250              		.file 7 "Generated_Source\\PSoC4/UART_SPI_UART.h"
 251              		.file 8 "Generated_Source\\PSoC4/Clock.h"
 252              		.file 9 "Generated_Source\\PSoC4/UART.h"
 253              		.file 10 "Generated_Source\\PSoC4/cytypes.h"