ARM GAS  C:\Users\Lenovo\AppData\Local\Temp\ccXXud0b.s 			page 1


   1              		.syntax unified
   2              		.cpu cortex-m0plus
   3              		.fpu softvfp
   4              		.eabi_attribute 20, 1
   5              		.eabi_attribute 21, 1
   6              		.eabi_attribute 23, 3
   7              		.eabi_attribute 24, 1
   8              		.eabi_attribute 25, 1
   9              		.eabi_attribute 26, 1
  10              		.eabi_attribute 30, 1
  11              		.eabi_attribute 34, 0
  12              		.eabi_attribute 18, 4
  13              		.thumb
  14              		.syntax unified
  15              		.file	"PWM.c"
  16              		.text
  17              	.Ltext0:
  18              		.cfi_sections	.debug_frame
  19              		.section	.text.PWM_Enable,"ax",%progbits
  20              		.align	2
  21              		.global	PWM_Enable
  22              		.code	16
  23              		.thumb_func
  24              		.type	PWM_Enable, %function
  25              	PWM_Enable:
  26              	.LFB2:
  27              		.file 1 "Generated_Source\\PSoC4\\PWM.c"
   1:Generated_Source\PSoC4/PWM.c **** /*******************************************************************************
   2:Generated_Source\PSoC4/PWM.c **** * File Name: PWM.c
   3:Generated_Source\PSoC4/PWM.c **** * Version 2.10
   4:Generated_Source\PSoC4/PWM.c **** *
   5:Generated_Source\PSoC4/PWM.c **** * Description:
   6:Generated_Source\PSoC4/PWM.c **** *  This file provides the source code to the API for the PWM
   7:Generated_Source\PSoC4/PWM.c **** *  component
   8:Generated_Source\PSoC4/PWM.c **** *
   9:Generated_Source\PSoC4/PWM.c **** * Note:
  10:Generated_Source\PSoC4/PWM.c **** *  None
  11:Generated_Source\PSoC4/PWM.c **** *
  12:Generated_Source\PSoC4/PWM.c **** ********************************************************************************
  13:Generated_Source\PSoC4/PWM.c **** * Copyright 2013-2015, Cypress Semiconductor Corporation.  All rights reserved.
  14:Generated_Source\PSoC4/PWM.c **** * You may use this file only in accordance with the license, terms, conditions,
  15:Generated_Source\PSoC4/PWM.c **** * disclaimers, and limitations in the end user license agreement accompanying
  16:Generated_Source\PSoC4/PWM.c **** * the software package with which this file was provided.
  17:Generated_Source\PSoC4/PWM.c **** *******************************************************************************/
  18:Generated_Source\PSoC4/PWM.c **** 
  19:Generated_Source\PSoC4/PWM.c **** #include "PWM.h"
  20:Generated_Source\PSoC4/PWM.c **** 
  21:Generated_Source\PSoC4/PWM.c **** uint8 PWM_initVar = 0u;
  22:Generated_Source\PSoC4/PWM.c **** 
  23:Generated_Source\PSoC4/PWM.c **** 
  24:Generated_Source\PSoC4/PWM.c **** /*******************************************************************************
  25:Generated_Source\PSoC4/PWM.c **** * Function Name: PWM_Init
  26:Generated_Source\PSoC4/PWM.c **** ********************************************************************************
  27:Generated_Source\PSoC4/PWM.c **** *
  28:Generated_Source\PSoC4/PWM.c **** * Summary:
  29:Generated_Source\PSoC4/PWM.c **** *  Initialize/Restore default PWM configuration.
  30:Generated_Source\PSoC4/PWM.c **** *
ARM GAS  C:\Users\Lenovo\AppData\Local\Temp\ccXXud0b.s 			page 2


  31:Generated_Source\PSoC4/PWM.c **** * Parameters:
  32:Generated_Source\PSoC4/PWM.c **** *  None
  33:Generated_Source\PSoC4/PWM.c **** *
  34:Generated_Source\PSoC4/PWM.c **** * Return:
  35:Generated_Source\PSoC4/PWM.c **** *  None
  36:Generated_Source\PSoC4/PWM.c **** *
  37:Generated_Source\PSoC4/PWM.c **** *******************************************************************************/
  38:Generated_Source\PSoC4/PWM.c **** void PWM_Init(void)
  39:Generated_Source\PSoC4/PWM.c **** {
  40:Generated_Source\PSoC4/PWM.c **** 
  41:Generated_Source\PSoC4/PWM.c ****     /* Set values from customizer to CTRL */
  42:Generated_Source\PSoC4/PWM.c ****     #if (PWM__QUAD == PWM_CONFIG)
  43:Generated_Source\PSoC4/PWM.c ****         PWM_CONTROL_REG = PWM_CTRL_QUAD_BASE_CONFIG;
  44:Generated_Source\PSoC4/PWM.c ****         
  45:Generated_Source\PSoC4/PWM.c ****         /* Set values from customizer to CTRL1 */
  46:Generated_Source\PSoC4/PWM.c ****         PWM_TRIG_CONTROL1_REG  = PWM_QUAD_SIGNALS_MODES;
  47:Generated_Source\PSoC4/PWM.c **** 
  48:Generated_Source\PSoC4/PWM.c ****         /* Set values from customizer to INTR */
  49:Generated_Source\PSoC4/PWM.c ****         PWM_SetInterruptMode(PWM_QUAD_INTERRUPT_MASK);
  50:Generated_Source\PSoC4/PWM.c ****         
  51:Generated_Source\PSoC4/PWM.c ****          /* Set other values */
  52:Generated_Source\PSoC4/PWM.c ****         PWM_SetCounterMode(PWM_COUNT_DOWN);
  53:Generated_Source\PSoC4/PWM.c ****         PWM_WritePeriod(PWM_QUAD_PERIOD_INIT_VALUE);
  54:Generated_Source\PSoC4/PWM.c ****         PWM_WriteCounter(PWM_QUAD_PERIOD_INIT_VALUE);
  55:Generated_Source\PSoC4/PWM.c ****     #endif  /* (PWM__QUAD == PWM_CONFIG) */
  56:Generated_Source\PSoC4/PWM.c **** 
  57:Generated_Source\PSoC4/PWM.c ****     #if (PWM__TIMER == PWM_CONFIG)
  58:Generated_Source\PSoC4/PWM.c ****         PWM_CONTROL_REG = PWM_CTRL_TIMER_BASE_CONFIG;
  59:Generated_Source\PSoC4/PWM.c ****         
  60:Generated_Source\PSoC4/PWM.c ****         /* Set values from customizer to CTRL1 */
  61:Generated_Source\PSoC4/PWM.c ****         PWM_TRIG_CONTROL1_REG  = PWM_TIMER_SIGNALS_MODES;
  62:Generated_Source\PSoC4/PWM.c ****     
  63:Generated_Source\PSoC4/PWM.c ****         /* Set values from customizer to INTR */
  64:Generated_Source\PSoC4/PWM.c ****         PWM_SetInterruptMode(PWM_TC_INTERRUPT_MASK);
  65:Generated_Source\PSoC4/PWM.c ****         
  66:Generated_Source\PSoC4/PWM.c ****         /* Set other values from customizer */
  67:Generated_Source\PSoC4/PWM.c ****         PWM_WritePeriod(PWM_TC_PERIOD_VALUE );
  68:Generated_Source\PSoC4/PWM.c **** 
  69:Generated_Source\PSoC4/PWM.c ****         #if (PWM__COMPARE == PWM_TC_COMP_CAP_MODE)
  70:Generated_Source\PSoC4/PWM.c ****             PWM_WriteCompare(PWM_TC_COMPARE_VALUE);
  71:Generated_Source\PSoC4/PWM.c **** 
  72:Generated_Source\PSoC4/PWM.c ****             #if (1u == PWM_TC_COMPARE_SWAP)
  73:Generated_Source\PSoC4/PWM.c ****                 PWM_SetCompareSwap(1u);
  74:Generated_Source\PSoC4/PWM.c ****                 PWM_WriteCompareBuf(PWM_TC_COMPARE_BUF_VALUE);
  75:Generated_Source\PSoC4/PWM.c ****             #endif  /* (1u == PWM_TC_COMPARE_SWAP) */
  76:Generated_Source\PSoC4/PWM.c ****         #endif  /* (PWM__COMPARE == PWM_TC_COMP_CAP_MODE) */
  77:Generated_Source\PSoC4/PWM.c **** 
  78:Generated_Source\PSoC4/PWM.c ****         /* Initialize counter value */
  79:Generated_Source\PSoC4/PWM.c ****         #if (PWM_CY_TCPWM_V2 && PWM_TIMER_UPDOWN_CNT_USED && !PWM_CY_TCPWM_4000)
  80:Generated_Source\PSoC4/PWM.c ****             PWM_WriteCounter(1u);
  81:Generated_Source\PSoC4/PWM.c ****         #elif(PWM__COUNT_DOWN == PWM_TC_COUNTER_MODE)
  82:Generated_Source\PSoC4/PWM.c ****             PWM_WriteCounter(PWM_TC_PERIOD_VALUE);
  83:Generated_Source\PSoC4/PWM.c ****         #else
  84:Generated_Source\PSoC4/PWM.c ****             PWM_WriteCounter(0u);
  85:Generated_Source\PSoC4/PWM.c ****         #endif /* (PWM_CY_TCPWM_V2 && PWM_TIMER_UPDOWN_CNT_USED && !PWM_CY_TCPWM_4000) */
  86:Generated_Source\PSoC4/PWM.c ****     #endif  /* (PWM__TIMER == PWM_CONFIG) */
  87:Generated_Source\PSoC4/PWM.c **** 
ARM GAS  C:\Users\Lenovo\AppData\Local\Temp\ccXXud0b.s 			page 3


  88:Generated_Source\PSoC4/PWM.c ****     #if (PWM__PWM_SEL == PWM_CONFIG)
  89:Generated_Source\PSoC4/PWM.c ****         PWM_CONTROL_REG = PWM_CTRL_PWM_BASE_CONFIG;
  90:Generated_Source\PSoC4/PWM.c **** 
  91:Generated_Source\PSoC4/PWM.c ****         #if (PWM__PWM_PR == PWM_PWM_MODE)
  92:Generated_Source\PSoC4/PWM.c ****             PWM_CONTROL_REG |= PWM_CTRL_PWM_RUN_MODE;
  93:Generated_Source\PSoC4/PWM.c ****             PWM_WriteCounter(PWM_PWM_PR_INIT_VALUE);
  94:Generated_Source\PSoC4/PWM.c ****         #else
  95:Generated_Source\PSoC4/PWM.c ****             PWM_CONTROL_REG |= PWM_CTRL_PWM_ALIGN | PWM_CTRL_PWM_KILL_EVENT;
  96:Generated_Source\PSoC4/PWM.c ****             
  97:Generated_Source\PSoC4/PWM.c ****             /* Initialize counter value */
  98:Generated_Source\PSoC4/PWM.c ****             #if (PWM_CY_TCPWM_V2 && PWM_PWM_UPDOWN_CNT_USED && !PWM_CY_TCPWM_4000)
  99:Generated_Source\PSoC4/PWM.c ****                 PWM_WriteCounter(1u);
 100:Generated_Source\PSoC4/PWM.c ****             #elif (PWM__RIGHT == PWM_PWM_ALIGN)
 101:Generated_Source\PSoC4/PWM.c ****                 PWM_WriteCounter(PWM_PWM_PERIOD_VALUE);
 102:Generated_Source\PSoC4/PWM.c ****             #else 
 103:Generated_Source\PSoC4/PWM.c ****                 PWM_WriteCounter(0u);
 104:Generated_Source\PSoC4/PWM.c ****             #endif  /* (PWM_CY_TCPWM_V2 && PWM_PWM_UPDOWN_CNT_USED && !PWM_CY_TCPWM_4000) */
 105:Generated_Source\PSoC4/PWM.c ****         #endif  /* (PWM__PWM_PR == PWM_PWM_MODE) */
 106:Generated_Source\PSoC4/PWM.c **** 
 107:Generated_Source\PSoC4/PWM.c ****         #if (PWM__PWM_DT == PWM_PWM_MODE)
 108:Generated_Source\PSoC4/PWM.c ****             PWM_CONTROL_REG |= PWM_CTRL_PWM_DEAD_TIME_CYCLE;
 109:Generated_Source\PSoC4/PWM.c ****         #endif  /* (PWM__PWM_DT == PWM_PWM_MODE) */
 110:Generated_Source\PSoC4/PWM.c **** 
 111:Generated_Source\PSoC4/PWM.c ****         #if (PWM__PWM == PWM_PWM_MODE)
 112:Generated_Source\PSoC4/PWM.c ****             PWM_CONTROL_REG |= PWM_CTRL_PWM_PRESCALER;
 113:Generated_Source\PSoC4/PWM.c ****         #endif  /* (PWM__PWM == PWM_PWM_MODE) */
 114:Generated_Source\PSoC4/PWM.c **** 
 115:Generated_Source\PSoC4/PWM.c ****         /* Set values from customizer to CTRL1 */
 116:Generated_Source\PSoC4/PWM.c ****         PWM_TRIG_CONTROL1_REG  = PWM_PWM_SIGNALS_MODES;
 117:Generated_Source\PSoC4/PWM.c ****     
 118:Generated_Source\PSoC4/PWM.c ****         /* Set values from customizer to INTR */
 119:Generated_Source\PSoC4/PWM.c ****         PWM_SetInterruptMode(PWM_PWM_INTERRUPT_MASK);
 120:Generated_Source\PSoC4/PWM.c **** 
 121:Generated_Source\PSoC4/PWM.c ****         /* Set values from customizer to CTRL2 */
 122:Generated_Source\PSoC4/PWM.c ****         #if (PWM__PWM_PR == PWM_PWM_MODE)
 123:Generated_Source\PSoC4/PWM.c ****             PWM_TRIG_CONTROL2_REG =
 124:Generated_Source\PSoC4/PWM.c ****                     (PWM_CC_MATCH_NO_CHANGE    |
 125:Generated_Source\PSoC4/PWM.c ****                     PWM_OVERLOW_NO_CHANGE      |
 126:Generated_Source\PSoC4/PWM.c ****                     PWM_UNDERFLOW_NO_CHANGE);
 127:Generated_Source\PSoC4/PWM.c ****         #else
 128:Generated_Source\PSoC4/PWM.c ****             #if (PWM__LEFT == PWM_PWM_ALIGN)
 129:Generated_Source\PSoC4/PWM.c ****                 PWM_TRIG_CONTROL2_REG = PWM_PWM_MODE_LEFT;
 130:Generated_Source\PSoC4/PWM.c ****             #endif  /* ( PWM_PWM_LEFT == PWM_PWM_ALIGN) */
 131:Generated_Source\PSoC4/PWM.c **** 
 132:Generated_Source\PSoC4/PWM.c ****             #if (PWM__RIGHT == PWM_PWM_ALIGN)
 133:Generated_Source\PSoC4/PWM.c ****                 PWM_TRIG_CONTROL2_REG = PWM_PWM_MODE_RIGHT;
 134:Generated_Source\PSoC4/PWM.c ****             #endif  /* ( PWM_PWM_RIGHT == PWM_PWM_ALIGN) */
 135:Generated_Source\PSoC4/PWM.c **** 
 136:Generated_Source\PSoC4/PWM.c ****             #if (PWM__CENTER == PWM_PWM_ALIGN)
 137:Generated_Source\PSoC4/PWM.c ****                 PWM_TRIG_CONTROL2_REG = PWM_PWM_MODE_CENTER;
 138:Generated_Source\PSoC4/PWM.c ****             #endif  /* ( PWM_PWM_CENTER == PWM_PWM_ALIGN) */
 139:Generated_Source\PSoC4/PWM.c **** 
 140:Generated_Source\PSoC4/PWM.c ****             #if (PWM__ASYMMETRIC == PWM_PWM_ALIGN)
 141:Generated_Source\PSoC4/PWM.c ****                 PWM_TRIG_CONTROL2_REG = PWM_PWM_MODE_ASYM;
 142:Generated_Source\PSoC4/PWM.c ****             #endif  /* (PWM__ASYMMETRIC == PWM_PWM_ALIGN) */
 143:Generated_Source\PSoC4/PWM.c ****         #endif  /* (PWM__PWM_PR == PWM_PWM_MODE) */
 144:Generated_Source\PSoC4/PWM.c **** 
ARM GAS  C:\Users\Lenovo\AppData\Local\Temp\ccXXud0b.s 			page 4


 145:Generated_Source\PSoC4/PWM.c ****         /* Set other values from customizer */
 146:Generated_Source\PSoC4/PWM.c ****         PWM_WritePeriod(PWM_PWM_PERIOD_VALUE );
 147:Generated_Source\PSoC4/PWM.c ****         PWM_WriteCompare(PWM_PWM_COMPARE_VALUE);
 148:Generated_Source\PSoC4/PWM.c **** 
 149:Generated_Source\PSoC4/PWM.c ****         #if (1u == PWM_PWM_COMPARE_SWAP)
 150:Generated_Source\PSoC4/PWM.c ****             PWM_SetCompareSwap(1u);
 151:Generated_Source\PSoC4/PWM.c ****             PWM_WriteCompareBuf(PWM_PWM_COMPARE_BUF_VALUE);
 152:Generated_Source\PSoC4/PWM.c ****         #endif  /* (1u == PWM_PWM_COMPARE_SWAP) */
 153:Generated_Source\PSoC4/PWM.c **** 
 154:Generated_Source\PSoC4/PWM.c ****         #if (1u == PWM_PWM_PERIOD_SWAP)
 155:Generated_Source\PSoC4/PWM.c ****             PWM_SetPeriodSwap(1u);
 156:Generated_Source\PSoC4/PWM.c ****             PWM_WritePeriodBuf(PWM_PWM_PERIOD_BUF_VALUE);
 157:Generated_Source\PSoC4/PWM.c ****         #endif  /* (1u == PWM_PWM_PERIOD_SWAP) */
 158:Generated_Source\PSoC4/PWM.c ****     #endif  /* (PWM__PWM_SEL == PWM_CONFIG) */
 159:Generated_Source\PSoC4/PWM.c ****     
 160:Generated_Source\PSoC4/PWM.c **** }
 161:Generated_Source\PSoC4/PWM.c **** 
 162:Generated_Source\PSoC4/PWM.c **** 
 163:Generated_Source\PSoC4/PWM.c **** /*******************************************************************************
 164:Generated_Source\PSoC4/PWM.c **** * Function Name: PWM_Enable
 165:Generated_Source\PSoC4/PWM.c **** ********************************************************************************
 166:Generated_Source\PSoC4/PWM.c **** *
 167:Generated_Source\PSoC4/PWM.c **** * Summary:
 168:Generated_Source\PSoC4/PWM.c **** *  Enables the PWM.
 169:Generated_Source\PSoC4/PWM.c **** *
 170:Generated_Source\PSoC4/PWM.c **** * Parameters:
 171:Generated_Source\PSoC4/PWM.c **** *  None
 172:Generated_Source\PSoC4/PWM.c **** *
 173:Generated_Source\PSoC4/PWM.c **** * Return:
 174:Generated_Source\PSoC4/PWM.c **** *  None
 175:Generated_Source\PSoC4/PWM.c **** *
 176:Generated_Source\PSoC4/PWM.c **** *******************************************************************************/
 177:Generated_Source\PSoC4/PWM.c **** void PWM_Enable(void)
 178:Generated_Source\PSoC4/PWM.c **** {
  28              		.loc 1 178 0
  29              		.cfi_startproc
  30              		@ args = 0, pretend = 0, frame = 0
  31              		@ frame_needed = 0, uses_anonymous_args = 0
  32 0000 10B5     		push	{r4, lr}
  33              		.cfi_def_cfa_offset 8
  34              		.cfi_offset 4, -8
  35              		.cfi_offset 14, -4
 179:Generated_Source\PSoC4/PWM.c ****     uint8 enableInterrupts;
 180:Generated_Source\PSoC4/PWM.c **** 
 181:Generated_Source\PSoC4/PWM.c ****     enableInterrupts = CyEnterCriticalSection();
  36              		.loc 1 181 0
  37 0002 FFF7FEFF 		bl	CyEnterCriticalSection
  38              	.LVL0:
 182:Generated_Source\PSoC4/PWM.c ****     PWM_BLOCK_CONTROL_REG |= PWM_MASK;
  39              		.loc 1 182 0
  40 0006 044A     		ldr	r2, .L2
  41 0008 1168     		ldr	r1, [r2]
  42 000a 0823     		movs	r3, #8
  43 000c 0B43     		orrs	r3, r1
  44 000e 1360     		str	r3, [r2]
 183:Generated_Source\PSoC4/PWM.c ****     CyExitCriticalSection(enableInterrupts);
  45              		.loc 1 183 0
ARM GAS  C:\Users\Lenovo\AppData\Local\Temp\ccXXud0b.s 			page 5


  46 0010 FFF7FEFF 		bl	CyExitCriticalSection
  47              	.LVL1:
 184:Generated_Source\PSoC4/PWM.c **** 
 185:Generated_Source\PSoC4/PWM.c ****     /* Start Timer or PWM if start input is absent */
 186:Generated_Source\PSoC4/PWM.c ****     #if (PWM__PWM_SEL == PWM_CONFIG)
 187:Generated_Source\PSoC4/PWM.c ****         #if (0u == PWM_PWM_START_SIGNAL_PRESENT)
 188:Generated_Source\PSoC4/PWM.c ****             PWM_TriggerCommand(PWM_MASK, PWM_CMD_START);
 189:Generated_Source\PSoC4/PWM.c ****         #endif /* (0u == PWM_PWM_START_SIGNAL_PRESENT) */
 190:Generated_Source\PSoC4/PWM.c ****     #endif /* (PWM__PWM_SEL == PWM_CONFIG) */
 191:Generated_Source\PSoC4/PWM.c **** 
 192:Generated_Source\PSoC4/PWM.c ****     #if (PWM__TIMER == PWM_CONFIG)
 193:Generated_Source\PSoC4/PWM.c ****         #if (0u == PWM_TC_START_SIGNAL_PRESENT)
 194:Generated_Source\PSoC4/PWM.c ****             PWM_TriggerCommand(PWM_MASK, PWM_CMD_START);
 195:Generated_Source\PSoC4/PWM.c ****         #endif /* (0u == PWM_TC_START_SIGNAL_PRESENT) */
 196:Generated_Source\PSoC4/PWM.c ****     #endif /* (PWM__TIMER == PWM_CONFIG) */
 197:Generated_Source\PSoC4/PWM.c ****     
 198:Generated_Source\PSoC4/PWM.c ****     #if (PWM__QUAD == PWM_CONFIG)
 199:Generated_Source\PSoC4/PWM.c ****         #if (0u != PWM_QUAD_AUTO_START)
 200:Generated_Source\PSoC4/PWM.c ****             PWM_TriggerCommand(PWM_MASK, PWM_CMD_RELOAD);
 201:Generated_Source\PSoC4/PWM.c ****         #endif /* (0u != PWM_QUAD_AUTO_START) */
 202:Generated_Source\PSoC4/PWM.c ****     #endif  /* (PWM__QUAD == PWM_CONFIG) */
 203:Generated_Source\PSoC4/PWM.c **** }
  48              		.loc 1 203 0
  49              		@ sp needed
  50 0014 10BD     		pop	{r4, pc}
  51              	.L3:
  52 0016 C046     		.align	2
  53              	.L2:
  54 0018 00000640 		.word	1074135040
  55              		.cfi_endproc
  56              	.LFE2:
  57              		.size	PWM_Enable, .-PWM_Enable
  58              		.section	.text.PWM_Stop,"ax",%progbits
  59              		.align	2
  60              		.global	PWM_Stop
  61              		.code	16
  62              		.thumb_func
  63              		.type	PWM_Stop, %function
  64              	PWM_Stop:
  65              	.LFB4:
 204:Generated_Source\PSoC4/PWM.c **** 
 205:Generated_Source\PSoC4/PWM.c **** 
 206:Generated_Source\PSoC4/PWM.c **** /*******************************************************************************
 207:Generated_Source\PSoC4/PWM.c **** * Function Name: PWM_Start
 208:Generated_Source\PSoC4/PWM.c **** ********************************************************************************
 209:Generated_Source\PSoC4/PWM.c **** *
 210:Generated_Source\PSoC4/PWM.c **** * Summary:
 211:Generated_Source\PSoC4/PWM.c **** *  Initializes the PWM with default customizer
 212:Generated_Source\PSoC4/PWM.c **** *  values when called the first time and enables the PWM.
 213:Generated_Source\PSoC4/PWM.c **** *  For subsequent calls the configuration is left unchanged and the component is
 214:Generated_Source\PSoC4/PWM.c **** *  just enabled.
 215:Generated_Source\PSoC4/PWM.c **** *
 216:Generated_Source\PSoC4/PWM.c **** * Parameters:
 217:Generated_Source\PSoC4/PWM.c **** *  None
 218:Generated_Source\PSoC4/PWM.c **** *
 219:Generated_Source\PSoC4/PWM.c **** * Return:
 220:Generated_Source\PSoC4/PWM.c **** *  None
ARM GAS  C:\Users\Lenovo\AppData\Local\Temp\ccXXud0b.s 			page 6


 221:Generated_Source\PSoC4/PWM.c **** *
 222:Generated_Source\PSoC4/PWM.c **** * Global variables:
 223:Generated_Source\PSoC4/PWM.c **** *  PWM_initVar: global variable is used to indicate initial
 224:Generated_Source\PSoC4/PWM.c **** *  configuration of this component.  The variable is initialized to zero and set
 225:Generated_Source\PSoC4/PWM.c **** *  to 1 the first time PWM_Start() is called. This allows
 226:Generated_Source\PSoC4/PWM.c **** *  enabling/disabling a component without re-initialization in all subsequent
 227:Generated_Source\PSoC4/PWM.c **** *  calls to the PWM_Start() routine.
 228:Generated_Source\PSoC4/PWM.c **** *
 229:Generated_Source\PSoC4/PWM.c **** *******************************************************************************/
 230:Generated_Source\PSoC4/PWM.c **** void PWM_Start(void)
 231:Generated_Source\PSoC4/PWM.c **** {
 232:Generated_Source\PSoC4/PWM.c ****     if (0u == PWM_initVar)
 233:Generated_Source\PSoC4/PWM.c ****     {
 234:Generated_Source\PSoC4/PWM.c ****         PWM_Init();
 235:Generated_Source\PSoC4/PWM.c ****         PWM_initVar = 1u;
 236:Generated_Source\PSoC4/PWM.c ****     }
 237:Generated_Source\PSoC4/PWM.c **** 
 238:Generated_Source\PSoC4/PWM.c ****     PWM_Enable();
 239:Generated_Source\PSoC4/PWM.c **** }
 240:Generated_Source\PSoC4/PWM.c **** 
 241:Generated_Source\PSoC4/PWM.c **** 
 242:Generated_Source\PSoC4/PWM.c **** /*******************************************************************************
 243:Generated_Source\PSoC4/PWM.c **** * Function Name: PWM_Stop
 244:Generated_Source\PSoC4/PWM.c **** ********************************************************************************
 245:Generated_Source\PSoC4/PWM.c **** *
 246:Generated_Source\PSoC4/PWM.c **** * Summary:
 247:Generated_Source\PSoC4/PWM.c **** *  Disables the PWM.
 248:Generated_Source\PSoC4/PWM.c **** *
 249:Generated_Source\PSoC4/PWM.c **** * Parameters:
 250:Generated_Source\PSoC4/PWM.c **** *  None
 251:Generated_Source\PSoC4/PWM.c **** *
 252:Generated_Source\PSoC4/PWM.c **** * Return:
 253:Generated_Source\PSoC4/PWM.c **** *  None
 254:Generated_Source\PSoC4/PWM.c **** *
 255:Generated_Source\PSoC4/PWM.c **** *******************************************************************************/
 256:Generated_Source\PSoC4/PWM.c **** void PWM_Stop(void)
 257:Generated_Source\PSoC4/PWM.c **** {
  66              		.loc 1 257 0
  67              		.cfi_startproc
  68              		@ args = 0, pretend = 0, frame = 0
  69              		@ frame_needed = 0, uses_anonymous_args = 0
  70 0000 10B5     		push	{r4, lr}
  71              		.cfi_def_cfa_offset 8
  72              		.cfi_offset 4, -8
  73              		.cfi_offset 14, -4
 258:Generated_Source\PSoC4/PWM.c ****     uint8 enableInterrupts;
 259:Generated_Source\PSoC4/PWM.c **** 
 260:Generated_Source\PSoC4/PWM.c ****     enableInterrupts = CyEnterCriticalSection();
  74              		.loc 1 260 0
  75 0002 FFF7FEFF 		bl	CyEnterCriticalSection
  76              	.LVL2:
 261:Generated_Source\PSoC4/PWM.c **** 
 262:Generated_Source\PSoC4/PWM.c ****     PWM_BLOCK_CONTROL_REG &= (uint32)~PWM_MASK;
  77              		.loc 1 262 0
  78 0006 044A     		ldr	r2, .L5
  79 0008 1368     		ldr	r3, [r2]
  80 000a 0821     		movs	r1, #8
ARM GAS  C:\Users\Lenovo\AppData\Local\Temp\ccXXud0b.s 			page 7


  81 000c 8B43     		bics	r3, r1
  82 000e 1360     		str	r3, [r2]
 263:Generated_Source\PSoC4/PWM.c **** 
 264:Generated_Source\PSoC4/PWM.c ****     CyExitCriticalSection(enableInterrupts);
  83              		.loc 1 264 0
  84 0010 FFF7FEFF 		bl	CyExitCriticalSection
  85              	.LVL3:
 265:Generated_Source\PSoC4/PWM.c **** }
  86              		.loc 1 265 0
  87              		@ sp needed
  88 0014 10BD     		pop	{r4, pc}
  89              	.L6:
  90 0016 C046     		.align	2
  91              	.L5:
  92 0018 00000640 		.word	1074135040
  93              		.cfi_endproc
  94              	.LFE4:
  95              		.size	PWM_Stop, .-PWM_Stop
  96              		.section	.text.PWM_SetMode,"ax",%progbits
  97              		.align	2
  98              		.global	PWM_SetMode
  99              		.code	16
 100              		.thumb_func
 101              		.type	PWM_SetMode, %function
 102              	PWM_SetMode:
 103              	.LFB5:
 266:Generated_Source\PSoC4/PWM.c **** 
 267:Generated_Source\PSoC4/PWM.c **** 
 268:Generated_Source\PSoC4/PWM.c **** /*******************************************************************************
 269:Generated_Source\PSoC4/PWM.c **** * Function Name: PWM_SetMode
 270:Generated_Source\PSoC4/PWM.c **** ********************************************************************************
 271:Generated_Source\PSoC4/PWM.c **** *
 272:Generated_Source\PSoC4/PWM.c **** * Summary:
 273:Generated_Source\PSoC4/PWM.c **** *  Sets the operation mode of the PWM. This function is used when
 274:Generated_Source\PSoC4/PWM.c **** *  configured as a generic PWM and the actual mode of operation is
 275:Generated_Source\PSoC4/PWM.c **** *  set at runtime. The mode must be set while the component is disabled.
 276:Generated_Source\PSoC4/PWM.c **** *
 277:Generated_Source\PSoC4/PWM.c **** * Parameters:
 278:Generated_Source\PSoC4/PWM.c **** *  mode: Mode for the PWM to operate in
 279:Generated_Source\PSoC4/PWM.c **** *   Values:
 280:Generated_Source\PSoC4/PWM.c **** *   - PWM_MODE_TIMER_COMPARE - Timer / Counter with
 281:Generated_Source\PSoC4/PWM.c **** *                                                 compare capability
 282:Generated_Source\PSoC4/PWM.c **** *         - PWM_MODE_TIMER_CAPTURE - Timer / Counter with
 283:Generated_Source\PSoC4/PWM.c **** *                                                 capture capability
 284:Generated_Source\PSoC4/PWM.c **** *         - PWM_MODE_QUAD - Quadrature decoder
 285:Generated_Source\PSoC4/PWM.c **** *         - PWM_MODE_PWM - PWM
 286:Generated_Source\PSoC4/PWM.c **** *         - PWM_MODE_PWM_DT - PWM with dead time
 287:Generated_Source\PSoC4/PWM.c **** *         - PWM_MODE_PWM_PR - PWM with pseudo random capability
 288:Generated_Source\PSoC4/PWM.c **** *
 289:Generated_Source\PSoC4/PWM.c **** * Return:
 290:Generated_Source\PSoC4/PWM.c **** *  None
 291:Generated_Source\PSoC4/PWM.c **** *
 292:Generated_Source\PSoC4/PWM.c **** *******************************************************************************/
 293:Generated_Source\PSoC4/PWM.c **** void PWM_SetMode(uint32 mode)
 294:Generated_Source\PSoC4/PWM.c **** {
 104              		.loc 1 294 0
 105              		.cfi_startproc
ARM GAS  C:\Users\Lenovo\AppData\Local\Temp\ccXXud0b.s 			page 8


 106              		@ args = 0, pretend = 0, frame = 0
 107              		@ frame_needed = 0, uses_anonymous_args = 0
 108              	.LVL4:
 109 0000 10B5     		push	{r4, lr}
 110              		.cfi_def_cfa_offset 8
 111              		.cfi_offset 4, -8
 112              		.cfi_offset 14, -4
 113 0002 0400     		movs	r4, r0
 295:Generated_Source\PSoC4/PWM.c ****     uint8 enableInterrupts;
 296:Generated_Source\PSoC4/PWM.c **** 
 297:Generated_Source\PSoC4/PWM.c ****     enableInterrupts = CyEnterCriticalSection();
 114              		.loc 1 297 0
 115 0004 FFF7FEFF 		bl	CyEnterCriticalSection
 116              	.LVL5:
 298:Generated_Source\PSoC4/PWM.c **** 
 299:Generated_Source\PSoC4/PWM.c ****     PWM_CONTROL_REG &= (uint32)~PWM_MODE_MASK;
 117              		.loc 1 299 0
 118 0008 054B     		ldr	r3, .L8
 119 000a 1968     		ldr	r1, [r3]
 120 000c 054A     		ldr	r2, .L8+4
 121 000e 0A40     		ands	r2, r1
 122 0010 1A60     		str	r2, [r3]
 300:Generated_Source\PSoC4/PWM.c ****     PWM_CONTROL_REG |= mode;
 123              		.loc 1 300 0
 124 0012 1A68     		ldr	r2, [r3]
 125 0014 1443     		orrs	r4, r2
 126              	.LVL6:
 127 0016 1C60     		str	r4, [r3]
 301:Generated_Source\PSoC4/PWM.c **** 
 302:Generated_Source\PSoC4/PWM.c ****     CyExitCriticalSection(enableInterrupts);
 128              		.loc 1 302 0
 129 0018 FFF7FEFF 		bl	CyExitCriticalSection
 130              	.LVL7:
 303:Generated_Source\PSoC4/PWM.c **** }
 131              		.loc 1 303 0
 132              		@ sp needed
 133 001c 10BD     		pop	{r4, pc}
 134              	.L9:
 135 001e C046     		.align	2
 136              	.L8:
 137 0020 C0010640 		.word	1074135488
 138 0024 FFFFFFF8 		.word	-117440513
 139              		.cfi_endproc
 140              	.LFE5:
 141              		.size	PWM_SetMode, .-PWM_SetMode
 142              		.section	.text.PWM_SetQDMode,"ax",%progbits
 143              		.align	2
 144              		.global	PWM_SetQDMode
 145              		.code	16
 146              		.thumb_func
 147              		.type	PWM_SetQDMode, %function
 148              	PWM_SetQDMode:
 149              	.LFB6:
 304:Generated_Source\PSoC4/PWM.c **** 
 305:Generated_Source\PSoC4/PWM.c **** 
 306:Generated_Source\PSoC4/PWM.c **** /*******************************************************************************
 307:Generated_Source\PSoC4/PWM.c **** * Function Name: PWM_SetQDMode
ARM GAS  C:\Users\Lenovo\AppData\Local\Temp\ccXXud0b.s 			page 9


 308:Generated_Source\PSoC4/PWM.c **** ********************************************************************************
 309:Generated_Source\PSoC4/PWM.c **** *
 310:Generated_Source\PSoC4/PWM.c **** * Summary:
 311:Generated_Source\PSoC4/PWM.c **** *  Sets the the Quadrature Decoder to one of the 3 supported modes.
 312:Generated_Source\PSoC4/PWM.c **** *  Its functionality is only applicable to Quadrature Decoder operation.
 313:Generated_Source\PSoC4/PWM.c **** *
 314:Generated_Source\PSoC4/PWM.c **** * Parameters:
 315:Generated_Source\PSoC4/PWM.c **** *  qdMode: Quadrature Decoder mode
 316:Generated_Source\PSoC4/PWM.c **** *   Values:
 317:Generated_Source\PSoC4/PWM.c **** *         - PWM_MODE_X1 - Counts on phi 1 rising
 318:Generated_Source\PSoC4/PWM.c **** *         - PWM_MODE_X2 - Counts on both edges of phi1 (2x faster)
 319:Generated_Source\PSoC4/PWM.c **** *         - PWM_MODE_X4 - Counts on both edges of phi1 and phi2
 320:Generated_Source\PSoC4/PWM.c **** *                                        (4x faster)
 321:Generated_Source\PSoC4/PWM.c **** *
 322:Generated_Source\PSoC4/PWM.c **** * Return:
 323:Generated_Source\PSoC4/PWM.c **** *  None
 324:Generated_Source\PSoC4/PWM.c **** *
 325:Generated_Source\PSoC4/PWM.c **** *******************************************************************************/
 326:Generated_Source\PSoC4/PWM.c **** void PWM_SetQDMode(uint32 qdMode)
 327:Generated_Source\PSoC4/PWM.c **** {
 150              		.loc 1 327 0
 151              		.cfi_startproc
 152              		@ args = 0, pretend = 0, frame = 0
 153              		@ frame_needed = 0, uses_anonymous_args = 0
 154              	.LVL8:
 155 0000 10B5     		push	{r4, lr}
 156              		.cfi_def_cfa_offset 8
 157              		.cfi_offset 4, -8
 158              		.cfi_offset 14, -4
 159 0002 0400     		movs	r4, r0
 328:Generated_Source\PSoC4/PWM.c ****     uint8 enableInterrupts;
 329:Generated_Source\PSoC4/PWM.c **** 
 330:Generated_Source\PSoC4/PWM.c ****     enableInterrupts = CyEnterCriticalSection();
 160              		.loc 1 330 0
 161 0004 FFF7FEFF 		bl	CyEnterCriticalSection
 162              	.LVL9:
 331:Generated_Source\PSoC4/PWM.c **** 
 332:Generated_Source\PSoC4/PWM.c ****     PWM_CONTROL_REG &= (uint32)~PWM_QUAD_MODE_MASK;
 163              		.loc 1 332 0
 164 0008 054B     		ldr	r3, .L11
 165 000a 1968     		ldr	r1, [r3]
 166 000c 054A     		ldr	r2, .L11+4
 167 000e 0A40     		ands	r2, r1
 168 0010 1A60     		str	r2, [r3]
 333:Generated_Source\PSoC4/PWM.c ****     PWM_CONTROL_REG |= qdMode;
 169              		.loc 1 333 0
 170 0012 1A68     		ldr	r2, [r3]
 171 0014 1443     		orrs	r4, r2
 172              	.LVL10:
 173 0016 1C60     		str	r4, [r3]
 334:Generated_Source\PSoC4/PWM.c **** 
 335:Generated_Source\PSoC4/PWM.c ****     CyExitCriticalSection(enableInterrupts);
 174              		.loc 1 335 0
 175 0018 FFF7FEFF 		bl	CyExitCriticalSection
 176              	.LVL11:
 336:Generated_Source\PSoC4/PWM.c **** }
 177              		.loc 1 336 0
ARM GAS  C:\Users\Lenovo\AppData\Local\Temp\ccXXud0b.s 			page 10


 178              		@ sp needed
 179 001c 10BD     		pop	{r4, pc}
 180              	.L12:
 181 001e C046     		.align	2
 182              	.L11:
 183 0020 C0010640 		.word	1074135488
 184 0024 FFFF8FFF 		.word	-7340033
 185              		.cfi_endproc
 186              	.LFE6:
 187              		.size	PWM_SetQDMode, .-PWM_SetQDMode
 188              		.section	.text.PWM_SetPrescaler,"ax",%progbits
 189              		.align	2
 190              		.global	PWM_SetPrescaler
 191              		.code	16
 192              		.thumb_func
 193              		.type	PWM_SetPrescaler, %function
 194              	PWM_SetPrescaler:
 195              	.LFB7:
 337:Generated_Source\PSoC4/PWM.c **** 
 338:Generated_Source\PSoC4/PWM.c **** 
 339:Generated_Source\PSoC4/PWM.c **** /*******************************************************************************
 340:Generated_Source\PSoC4/PWM.c **** * Function Name: PWM_SetPrescaler
 341:Generated_Source\PSoC4/PWM.c **** ********************************************************************************
 342:Generated_Source\PSoC4/PWM.c **** *
 343:Generated_Source\PSoC4/PWM.c **** * Summary:
 344:Generated_Source\PSoC4/PWM.c **** *  Sets the prescaler value that is applied to the clock input.  Not applicable
 345:Generated_Source\PSoC4/PWM.c **** *  to a PWM with the dead time mode or Quadrature Decoder mode.
 346:Generated_Source\PSoC4/PWM.c **** *
 347:Generated_Source\PSoC4/PWM.c **** * Parameters:
 348:Generated_Source\PSoC4/PWM.c **** *  prescaler: Prescaler divider value
 349:Generated_Source\PSoC4/PWM.c **** *   Values:
 350:Generated_Source\PSoC4/PWM.c **** *         - PWM_PRESCALE_DIVBY1    - Divide by 1 (no prescaling)
 351:Generated_Source\PSoC4/PWM.c **** *         - PWM_PRESCALE_DIVBY2    - Divide by 2
 352:Generated_Source\PSoC4/PWM.c **** *         - PWM_PRESCALE_DIVBY4    - Divide by 4
 353:Generated_Source\PSoC4/PWM.c **** *         - PWM_PRESCALE_DIVBY8    - Divide by 8
 354:Generated_Source\PSoC4/PWM.c **** *         - PWM_PRESCALE_DIVBY16   - Divide by 16
 355:Generated_Source\PSoC4/PWM.c **** *         - PWM_PRESCALE_DIVBY32   - Divide by 32
 356:Generated_Source\PSoC4/PWM.c **** *         - PWM_PRESCALE_DIVBY64   - Divide by 64
 357:Generated_Source\PSoC4/PWM.c **** *         - PWM_PRESCALE_DIVBY128  - Divide by 128
 358:Generated_Source\PSoC4/PWM.c **** *
 359:Generated_Source\PSoC4/PWM.c **** * Return:
 360:Generated_Source\PSoC4/PWM.c **** *  None
 361:Generated_Source\PSoC4/PWM.c **** *
 362:Generated_Source\PSoC4/PWM.c **** *******************************************************************************/
 363:Generated_Source\PSoC4/PWM.c **** void PWM_SetPrescaler(uint32 prescaler)
 364:Generated_Source\PSoC4/PWM.c **** {
 196              		.loc 1 364 0
 197              		.cfi_startproc
 198              		@ args = 0, pretend = 0, frame = 0
 199              		@ frame_needed = 0, uses_anonymous_args = 0
 200              	.LVL12:
 201 0000 10B5     		push	{r4, lr}
 202              		.cfi_def_cfa_offset 8
 203              		.cfi_offset 4, -8
 204              		.cfi_offset 14, -4
 205 0002 0400     		movs	r4, r0
 365:Generated_Source\PSoC4/PWM.c ****     uint8 enableInterrupts;
ARM GAS  C:\Users\Lenovo\AppData\Local\Temp\ccXXud0b.s 			page 11


 366:Generated_Source\PSoC4/PWM.c **** 
 367:Generated_Source\PSoC4/PWM.c ****     enableInterrupts = CyEnterCriticalSection();
 206              		.loc 1 367 0
 207 0004 FFF7FEFF 		bl	CyEnterCriticalSection
 208              	.LVL13:
 368:Generated_Source\PSoC4/PWM.c **** 
 369:Generated_Source\PSoC4/PWM.c ****     PWM_CONTROL_REG &= (uint32)~PWM_PRESCALER_MASK;
 209              		.loc 1 369 0
 210 0008 054B     		ldr	r3, .L14
 211 000a 1968     		ldr	r1, [r3]
 212 000c 054A     		ldr	r2, .L14+4
 213 000e 0A40     		ands	r2, r1
 214 0010 1A60     		str	r2, [r3]
 370:Generated_Source\PSoC4/PWM.c ****     PWM_CONTROL_REG |= prescaler;
 215              		.loc 1 370 0
 216 0012 1A68     		ldr	r2, [r3]
 217 0014 1443     		orrs	r4, r2
 218              	.LVL14:
 219 0016 1C60     		str	r4, [r3]
 371:Generated_Source\PSoC4/PWM.c **** 
 372:Generated_Source\PSoC4/PWM.c ****     CyExitCriticalSection(enableInterrupts);
 220              		.loc 1 372 0
 221 0018 FFF7FEFF 		bl	CyExitCriticalSection
 222              	.LVL15:
 373:Generated_Source\PSoC4/PWM.c **** }
 223              		.loc 1 373 0
 224              		@ sp needed
 225 001c 10BD     		pop	{r4, pc}
 226              	.L15:
 227 001e C046     		.align	2
 228              	.L14:
 229 0020 C0010640 		.word	1074135488
 230 0024 FF00FFFF 		.word	-65281
 231              		.cfi_endproc
 232              	.LFE7:
 233              		.size	PWM_SetPrescaler, .-PWM_SetPrescaler
 234              		.section	.text.PWM_SetOneShot,"ax",%progbits
 235              		.align	2
 236              		.global	PWM_SetOneShot
 237              		.code	16
 238              		.thumb_func
 239              		.type	PWM_SetOneShot, %function
 240              	PWM_SetOneShot:
 241              	.LFB8:
 374:Generated_Source\PSoC4/PWM.c **** 
 375:Generated_Source\PSoC4/PWM.c **** 
 376:Generated_Source\PSoC4/PWM.c **** /*******************************************************************************
 377:Generated_Source\PSoC4/PWM.c **** * Function Name: PWM_SetOneShot
 378:Generated_Source\PSoC4/PWM.c **** ********************************************************************************
 379:Generated_Source\PSoC4/PWM.c **** *
 380:Generated_Source\PSoC4/PWM.c **** * Summary:
 381:Generated_Source\PSoC4/PWM.c **** *  Writes the register that controls whether the PWM runs
 382:Generated_Source\PSoC4/PWM.c **** *  continuously or stops when terminal count is reached.  By default the
 383:Generated_Source\PSoC4/PWM.c **** *  PWM operates in the continuous mode.
 384:Generated_Source\PSoC4/PWM.c **** *
 385:Generated_Source\PSoC4/PWM.c **** * Parameters:
 386:Generated_Source\PSoC4/PWM.c **** *  oneShotEnable
ARM GAS  C:\Users\Lenovo\AppData\Local\Temp\ccXXud0b.s 			page 12


 387:Generated_Source\PSoC4/PWM.c **** *   Values:
 388:Generated_Source\PSoC4/PWM.c **** *     - 0 - Continuous
 389:Generated_Source\PSoC4/PWM.c **** *     - 1 - Enable One Shot
 390:Generated_Source\PSoC4/PWM.c **** *
 391:Generated_Source\PSoC4/PWM.c **** * Return:
 392:Generated_Source\PSoC4/PWM.c **** *  None
 393:Generated_Source\PSoC4/PWM.c **** *
 394:Generated_Source\PSoC4/PWM.c **** *******************************************************************************/
 395:Generated_Source\PSoC4/PWM.c **** void PWM_SetOneShot(uint32 oneShotEnable)
 396:Generated_Source\PSoC4/PWM.c **** {
 242              		.loc 1 396 0
 243              		.cfi_startproc
 244              		@ args = 0, pretend = 0, frame = 0
 245              		@ frame_needed = 0, uses_anonymous_args = 0
 246              	.LVL16:
 247 0000 70B5     		push	{r4, r5, r6, lr}
 248              		.cfi_def_cfa_offset 16
 249              		.cfi_offset 4, -16
 250              		.cfi_offset 5, -12
 251              		.cfi_offset 6, -8
 252              		.cfi_offset 14, -4
 253 0002 0400     		movs	r4, r0
 397:Generated_Source\PSoC4/PWM.c ****     uint8 enableInterrupts;
 398:Generated_Source\PSoC4/PWM.c **** 
 399:Generated_Source\PSoC4/PWM.c ****     enableInterrupts = CyEnterCriticalSection();
 254              		.loc 1 399 0
 255 0004 FFF7FEFF 		bl	CyEnterCriticalSection
 256              	.LVL17:
 400:Generated_Source\PSoC4/PWM.c **** 
 401:Generated_Source\PSoC4/PWM.c ****     PWM_CONTROL_REG &= (uint32)~PWM_ONESHOT_MASK;
 257              		.loc 1 401 0
 258 0008 0749     		ldr	r1, .L17
 259 000a 0A68     		ldr	r2, [r1]
 260 000c 074B     		ldr	r3, .L17+4
 261 000e 1340     		ands	r3, r2
 262 0010 0B60     		str	r3, [r1]
 402:Generated_Source\PSoC4/PWM.c ****     PWM_CONTROL_REG |= ((uint32)((oneShotEnable & PWM_1BIT_MASK) <<
 263              		.loc 1 402 0
 264 0012 0D68     		ldr	r5, [r1]
 265 0014 A304     		lsls	r3, r4, #18
 266 0016 8022     		movs	r2, #128
 267 0018 D202     		lsls	r2, r2, #11
 268 001a 1340     		ands	r3, r2
 269 001c 2B43     		orrs	r3, r5
 270 001e 0B60     		str	r3, [r1]
 403:Generated_Source\PSoC4/PWM.c ****                                                                PWM_ONESHOT_SHIFT));
 404:Generated_Source\PSoC4/PWM.c **** 
 405:Generated_Source\PSoC4/PWM.c ****     CyExitCriticalSection(enableInterrupts);
 271              		.loc 1 405 0
 272 0020 FFF7FEFF 		bl	CyExitCriticalSection
 273              	.LVL18:
 406:Generated_Source\PSoC4/PWM.c **** }
 274              		.loc 1 406 0
 275              		@ sp needed
 276              	.LVL19:
 277 0024 70BD     		pop	{r4, r5, r6, pc}
 278              	.L18:
ARM GAS  C:\Users\Lenovo\AppData\Local\Temp\ccXXud0b.s 			page 13


 279 0026 C046     		.align	2
 280              	.L17:
 281 0028 C0010640 		.word	1074135488
 282 002c FFFFFBFF 		.word	-262145
 283              		.cfi_endproc
 284              	.LFE8:
 285              		.size	PWM_SetOneShot, .-PWM_SetOneShot
 286              		.section	.text.PWM_SetPWMMode,"ax",%progbits
 287              		.align	2
 288              		.global	PWM_SetPWMMode
 289              		.code	16
 290              		.thumb_func
 291              		.type	PWM_SetPWMMode, %function
 292              	PWM_SetPWMMode:
 293              	.LFB9:
 407:Generated_Source\PSoC4/PWM.c **** 
 408:Generated_Source\PSoC4/PWM.c **** 
 409:Generated_Source\PSoC4/PWM.c **** /*******************************************************************************
 410:Generated_Source\PSoC4/PWM.c **** * Function Name: PWM_SetPWMMode
 411:Generated_Source\PSoC4/PWM.c **** ********************************************************************************
 412:Generated_Source\PSoC4/PWM.c **** *
 413:Generated_Source\PSoC4/PWM.c **** * Summary:
 414:Generated_Source\PSoC4/PWM.c **** *  Writes the control register that determines what mode of operation the PWM
 415:Generated_Source\PSoC4/PWM.c **** *  output lines are driven in.  There is a setting for what to do on a
 416:Generated_Source\PSoC4/PWM.c **** *  comparison match (CC_MATCH), on an overflow (OVERFLOW) and on an underflow
 417:Generated_Source\PSoC4/PWM.c **** *  (UNDERFLOW).  The value for each of the three must be ORed together to form
 418:Generated_Source\PSoC4/PWM.c **** *  the mode.
 419:Generated_Source\PSoC4/PWM.c **** *
 420:Generated_Source\PSoC4/PWM.c **** * Parameters:
 421:Generated_Source\PSoC4/PWM.c **** *  modeMask: A combination of three mode settings.  Mask must include a value
 422:Generated_Source\PSoC4/PWM.c **** *  for each of the three or use one of the preconfigured PWM settings.
 423:Generated_Source\PSoC4/PWM.c **** *   Values:
 424:Generated_Source\PSoC4/PWM.c **** *     - CC_MATCH_SET        - Set on comparison match
 425:Generated_Source\PSoC4/PWM.c **** *     - CC_MATCH_CLEAR      - Clear on comparison match
 426:Generated_Source\PSoC4/PWM.c **** *     - CC_MATCH_INVERT     - Invert on comparison match
 427:Generated_Source\PSoC4/PWM.c **** *     - CC_MATCH_NO_CHANGE  - No change on comparison match
 428:Generated_Source\PSoC4/PWM.c **** *     - OVERLOW_SET         - Set on overflow
 429:Generated_Source\PSoC4/PWM.c **** *     - OVERLOW_CLEAR       - Clear on  overflow
 430:Generated_Source\PSoC4/PWM.c **** *     - OVERLOW_INVERT      - Invert on overflow
 431:Generated_Source\PSoC4/PWM.c **** *     - OVERLOW_NO_CHANGE   - No change on overflow
 432:Generated_Source\PSoC4/PWM.c **** *     - UNDERFLOW_SET       - Set on underflow
 433:Generated_Source\PSoC4/PWM.c **** *     - UNDERFLOW_CLEAR     - Clear on underflow
 434:Generated_Source\PSoC4/PWM.c **** *     - UNDERFLOW_INVERT    - Invert on underflow
 435:Generated_Source\PSoC4/PWM.c **** *     - UNDERFLOW_NO_CHANGE - No change on underflow
 436:Generated_Source\PSoC4/PWM.c **** *     - PWM_MODE_LEFT       - Setting for left aligned PWM.  Should be combined
 437:Generated_Source\PSoC4/PWM.c **** *                             with up counting mode
 438:Generated_Source\PSoC4/PWM.c **** *     - PWM_MODE_RIGHT      - Setting for right aligned PWM.  Should be combined
 439:Generated_Source\PSoC4/PWM.c **** *                             with down counting mode
 440:Generated_Source\PSoC4/PWM.c **** *     - PWM_MODE_CENTER     - Setting for center aligned PWM.  Should be
 441:Generated_Source\PSoC4/PWM.c **** *                             combined with up/down 0 mode
 442:Generated_Source\PSoC4/PWM.c **** *     - PWM_MODE_ASYM       - Setting for asymmetric PWM.  Should be combined
 443:Generated_Source\PSoC4/PWM.c **** *                             with up/down 1 mode
 444:Generated_Source\PSoC4/PWM.c **** *
 445:Generated_Source\PSoC4/PWM.c **** * Return:
 446:Generated_Source\PSoC4/PWM.c **** *  None
 447:Generated_Source\PSoC4/PWM.c **** *
 448:Generated_Source\PSoC4/PWM.c **** *******************************************************************************/
ARM GAS  C:\Users\Lenovo\AppData\Local\Temp\ccXXud0b.s 			page 14


 449:Generated_Source\PSoC4/PWM.c **** void PWM_SetPWMMode(uint32 modeMask)
 450:Generated_Source\PSoC4/PWM.c **** {
 294              		.loc 1 450 0
 295              		.cfi_startproc
 296              		@ args = 0, pretend = 0, frame = 0
 297              		@ frame_needed = 0, uses_anonymous_args = 0
 298              		@ link register save eliminated.
 299              	.LVL20:
 451:Generated_Source\PSoC4/PWM.c ****     PWM_TRIG_CONTROL2_REG = (modeMask & PWM_6BIT_MASK);
 300              		.loc 1 451 0
 301 0000 3F23     		movs	r3, #63
 302 0002 1840     		ands	r0, r3
 303              	.LVL21:
 304 0004 014B     		ldr	r3, .L20
 305 0006 1860     		str	r0, [r3]
 452:Generated_Source\PSoC4/PWM.c **** }
 306              		.loc 1 452 0
 307              		@ sp needed
 308 0008 7047     		bx	lr
 309              	.L21:
 310 000a C046     		.align	2
 311              	.L20:
 312 000c E8010640 		.word	1074135528
 313              		.cfi_endproc
 314              	.LFE9:
 315              		.size	PWM_SetPWMMode, .-PWM_SetPWMMode
 316              		.section	.text.PWM_SetPWMSyncKill,"ax",%progbits
 317              		.align	2
 318              		.global	PWM_SetPWMSyncKill
 319              		.code	16
 320              		.thumb_func
 321              		.type	PWM_SetPWMSyncKill, %function
 322              	PWM_SetPWMSyncKill:
 323              	.LFB10:
 453:Generated_Source\PSoC4/PWM.c **** 
 454:Generated_Source\PSoC4/PWM.c **** 
 455:Generated_Source\PSoC4/PWM.c **** 
 456:Generated_Source\PSoC4/PWM.c **** /*******************************************************************************
 457:Generated_Source\PSoC4/PWM.c **** * Function Name: PWM_SetPWMSyncKill
 458:Generated_Source\PSoC4/PWM.c **** ********************************************************************************
 459:Generated_Source\PSoC4/PWM.c **** *
 460:Generated_Source\PSoC4/PWM.c **** * Summary:
 461:Generated_Source\PSoC4/PWM.c **** *  Writes the register that controls whether the PWM kill signal (stop input)
 462:Generated_Source\PSoC4/PWM.c **** *  causes asynchronous or synchronous kill operation.  By default the kill
 463:Generated_Source\PSoC4/PWM.c **** *  operation is asynchronous.  This functionality is only applicable to the PWM
 464:Generated_Source\PSoC4/PWM.c **** *  and PWM with dead time modes.
 465:Generated_Source\PSoC4/PWM.c **** *
 466:Generated_Source\PSoC4/PWM.c **** *  For Synchronous mode the kill signal disables both the line and line_n
 467:Generated_Source\PSoC4/PWM.c **** *  signals until the next terminal count.
 468:Generated_Source\PSoC4/PWM.c **** *
 469:Generated_Source\PSoC4/PWM.c **** *  For Asynchronous mode the kill signal disables both the line and line_n
 470:Generated_Source\PSoC4/PWM.c **** *  signals when the kill signal is present.  This mode should only be used
 471:Generated_Source\PSoC4/PWM.c **** *  when the kill signal (stop input) is configured in the pass through mode
 472:Generated_Source\PSoC4/PWM.c **** *  (Level sensitive signal).
 473:Generated_Source\PSoC4/PWM.c **** 
 474:Generated_Source\PSoC4/PWM.c **** *
 475:Generated_Source\PSoC4/PWM.c **** * Parameters:
ARM GAS  C:\Users\Lenovo\AppData\Local\Temp\ccXXud0b.s 			page 15


 476:Generated_Source\PSoC4/PWM.c **** *  syncKillEnable
 477:Generated_Source\PSoC4/PWM.c **** *   Values:
 478:Generated_Source\PSoC4/PWM.c **** *     - 0 - Asynchronous
 479:Generated_Source\PSoC4/PWM.c **** *     - 1 - Synchronous
 480:Generated_Source\PSoC4/PWM.c **** *
 481:Generated_Source\PSoC4/PWM.c **** * Return:
 482:Generated_Source\PSoC4/PWM.c **** *  None
 483:Generated_Source\PSoC4/PWM.c **** *
 484:Generated_Source\PSoC4/PWM.c **** *******************************************************************************/
 485:Generated_Source\PSoC4/PWM.c **** void PWM_SetPWMSyncKill(uint32 syncKillEnable)
 486:Generated_Source\PSoC4/PWM.c **** {
 324              		.loc 1 486 0
 325              		.cfi_startproc
 326              		@ args = 0, pretend = 0, frame = 0
 327              		@ frame_needed = 0, uses_anonymous_args = 0
 328              	.LVL22:
 329 0000 70B5     		push	{r4, r5, r6, lr}
 330              		.cfi_def_cfa_offset 16
 331              		.cfi_offset 4, -16
 332              		.cfi_offset 5, -12
 333              		.cfi_offset 6, -8
 334              		.cfi_offset 14, -4
 335 0002 0400     		movs	r4, r0
 487:Generated_Source\PSoC4/PWM.c ****     uint8 enableInterrupts;
 488:Generated_Source\PSoC4/PWM.c **** 
 489:Generated_Source\PSoC4/PWM.c ****     enableInterrupts = CyEnterCriticalSection();
 336              		.loc 1 489 0
 337 0004 FFF7FEFF 		bl	CyEnterCriticalSection
 338              	.LVL23:
 490:Generated_Source\PSoC4/PWM.c **** 
 491:Generated_Source\PSoC4/PWM.c ****     PWM_CONTROL_REG &= (uint32)~PWM_PWM_SYNC_KILL_MASK;
 339              		.loc 1 491 0
 340 0008 064A     		ldr	r2, .L23
 341 000a 1368     		ldr	r3, [r2]
 342 000c 0421     		movs	r1, #4
 343 000e 8B43     		bics	r3, r1
 344 0010 1360     		str	r3, [r2]
 492:Generated_Source\PSoC4/PWM.c ****     PWM_CONTROL_REG |= ((uint32)((syncKillEnable & PWM_1BIT_MASK)  <<
 345              		.loc 1 492 0
 346 0012 1568     		ldr	r5, [r2]
 347 0014 A300     		lsls	r3, r4, #2
 348 0016 1940     		ands	r1, r3
 349 0018 0C00     		movs	r4, r1
 350              	.LVL24:
 351 001a 2C43     		orrs	r4, r5
 352 001c 1460     		str	r4, [r2]
 493:Generated_Source\PSoC4/PWM.c ****                                                PWM_PWM_SYNC_KILL_SHIFT));
 494:Generated_Source\PSoC4/PWM.c **** 
 495:Generated_Source\PSoC4/PWM.c ****     CyExitCriticalSection(enableInterrupts);
 353              		.loc 1 495 0
 354 001e FFF7FEFF 		bl	CyExitCriticalSection
 355              	.LVL25:
 496:Generated_Source\PSoC4/PWM.c **** }
 356              		.loc 1 496 0
 357              		@ sp needed
 358 0022 70BD     		pop	{r4, r5, r6, pc}
 359              	.L24:
ARM GAS  C:\Users\Lenovo\AppData\Local\Temp\ccXXud0b.s 			page 16


 360              		.align	2
 361              	.L23:
 362 0024 C0010640 		.word	1074135488
 363              		.cfi_endproc
 364              	.LFE10:
 365              		.size	PWM_SetPWMSyncKill, .-PWM_SetPWMSyncKill
 366              		.section	.text.PWM_SetPWMStopOnKill,"ax",%progbits
 367              		.align	2
 368              		.global	PWM_SetPWMStopOnKill
 369              		.code	16
 370              		.thumb_func
 371              		.type	PWM_SetPWMStopOnKill, %function
 372              	PWM_SetPWMStopOnKill:
 373              	.LFB11:
 497:Generated_Source\PSoC4/PWM.c **** 
 498:Generated_Source\PSoC4/PWM.c **** 
 499:Generated_Source\PSoC4/PWM.c **** /*******************************************************************************
 500:Generated_Source\PSoC4/PWM.c **** * Function Name: PWM_SetPWMStopOnKill
 501:Generated_Source\PSoC4/PWM.c **** ********************************************************************************
 502:Generated_Source\PSoC4/PWM.c **** *
 503:Generated_Source\PSoC4/PWM.c **** * Summary:
 504:Generated_Source\PSoC4/PWM.c **** *  Writes the register that controls whether the PWM kill signal (stop input)
 505:Generated_Source\PSoC4/PWM.c **** *  causes the PWM counter to stop.  By default the kill operation does not stop
 506:Generated_Source\PSoC4/PWM.c **** *  the counter.  This functionality is only applicable to the three PWM modes.
 507:Generated_Source\PSoC4/PWM.c **** *
 508:Generated_Source\PSoC4/PWM.c **** *
 509:Generated_Source\PSoC4/PWM.c **** * Parameters:
 510:Generated_Source\PSoC4/PWM.c **** *  stopOnKillEnable
 511:Generated_Source\PSoC4/PWM.c **** *   Values:
 512:Generated_Source\PSoC4/PWM.c **** *     - 0 - Don't stop
 513:Generated_Source\PSoC4/PWM.c **** *     - 1 - Stop
 514:Generated_Source\PSoC4/PWM.c **** *
 515:Generated_Source\PSoC4/PWM.c **** * Return:
 516:Generated_Source\PSoC4/PWM.c **** *  None
 517:Generated_Source\PSoC4/PWM.c **** *
 518:Generated_Source\PSoC4/PWM.c **** *******************************************************************************/
 519:Generated_Source\PSoC4/PWM.c **** void PWM_SetPWMStopOnKill(uint32 stopOnKillEnable)
 520:Generated_Source\PSoC4/PWM.c **** {
 374              		.loc 1 520 0
 375              		.cfi_startproc
 376              		@ args = 0, pretend = 0, frame = 0
 377              		@ frame_needed = 0, uses_anonymous_args = 0
 378              	.LVL26:
 379 0000 70B5     		push	{r4, r5, r6, lr}
 380              		.cfi_def_cfa_offset 16
 381              		.cfi_offset 4, -16
 382              		.cfi_offset 5, -12
 383              		.cfi_offset 6, -8
 384              		.cfi_offset 14, -4
 385 0002 0400     		movs	r4, r0
 521:Generated_Source\PSoC4/PWM.c ****     uint8 enableInterrupts;
 522:Generated_Source\PSoC4/PWM.c **** 
 523:Generated_Source\PSoC4/PWM.c ****     enableInterrupts = CyEnterCriticalSection();
 386              		.loc 1 523 0
 387 0004 FFF7FEFF 		bl	CyEnterCriticalSection
 388              	.LVL27:
 524:Generated_Source\PSoC4/PWM.c **** 
ARM GAS  C:\Users\Lenovo\AppData\Local\Temp\ccXXud0b.s 			page 17


 525:Generated_Source\PSoC4/PWM.c ****     PWM_CONTROL_REG &= (uint32)~PWM_PWM_STOP_KILL_MASK;
 389              		.loc 1 525 0
 390 0008 064A     		ldr	r2, .L26
 391 000a 1368     		ldr	r3, [r2]
 392 000c 0821     		movs	r1, #8
 393 000e 8B43     		bics	r3, r1
 394 0010 1360     		str	r3, [r2]
 526:Generated_Source\PSoC4/PWM.c ****     PWM_CONTROL_REG |= ((uint32)((stopOnKillEnable & PWM_1BIT_MASK)  <<
 395              		.loc 1 526 0
 396 0012 1568     		ldr	r5, [r2]
 397 0014 E300     		lsls	r3, r4, #3
 398 0016 1940     		ands	r1, r3
 399 0018 0C00     		movs	r4, r1
 400              	.LVL28:
 401 001a 2C43     		orrs	r4, r5
 402 001c 1460     		str	r4, [r2]
 527:Generated_Source\PSoC4/PWM.c ****                                                          PWM_PWM_STOP_KILL_SHIFT));
 528:Generated_Source\PSoC4/PWM.c **** 
 529:Generated_Source\PSoC4/PWM.c ****     CyExitCriticalSection(enableInterrupts);
 403              		.loc 1 529 0
 404 001e FFF7FEFF 		bl	CyExitCriticalSection
 405              	.LVL29:
 530:Generated_Source\PSoC4/PWM.c **** }
 406              		.loc 1 530 0
 407              		@ sp needed
 408 0022 70BD     		pop	{r4, r5, r6, pc}
 409              	.L27:
 410              		.align	2
 411              	.L26:
 412 0024 C0010640 		.word	1074135488
 413              		.cfi_endproc
 414              	.LFE11:
 415              		.size	PWM_SetPWMStopOnKill, .-PWM_SetPWMStopOnKill
 416              		.section	.text.PWM_SetPWMDeadTime,"ax",%progbits
 417              		.align	2
 418              		.global	PWM_SetPWMDeadTime
 419              		.code	16
 420              		.thumb_func
 421              		.type	PWM_SetPWMDeadTime, %function
 422              	PWM_SetPWMDeadTime:
 423              	.LFB12:
 531:Generated_Source\PSoC4/PWM.c **** 
 532:Generated_Source\PSoC4/PWM.c **** 
 533:Generated_Source\PSoC4/PWM.c **** /*******************************************************************************
 534:Generated_Source\PSoC4/PWM.c **** * Function Name: PWM_SetPWMDeadTime
 535:Generated_Source\PSoC4/PWM.c **** ********************************************************************************
 536:Generated_Source\PSoC4/PWM.c **** *
 537:Generated_Source\PSoC4/PWM.c **** * Summary:
 538:Generated_Source\PSoC4/PWM.c **** *  Writes the dead time control value.  This value delays the rising edge of
 539:Generated_Source\PSoC4/PWM.c **** *  both the line and line_n signals the designated number of cycles resulting
 540:Generated_Source\PSoC4/PWM.c **** *  in both signals being inactive for that many cycles.  This functionality is
 541:Generated_Source\PSoC4/PWM.c **** *  only applicable to the PWM in the dead time mode.
 542:Generated_Source\PSoC4/PWM.c **** 
 543:Generated_Source\PSoC4/PWM.c **** *
 544:Generated_Source\PSoC4/PWM.c **** * Parameters:
 545:Generated_Source\PSoC4/PWM.c **** *  Dead time to insert
 546:Generated_Source\PSoC4/PWM.c **** *   Values: 0 to 255
ARM GAS  C:\Users\Lenovo\AppData\Local\Temp\ccXXud0b.s 			page 18


 547:Generated_Source\PSoC4/PWM.c **** *
 548:Generated_Source\PSoC4/PWM.c **** * Return:
 549:Generated_Source\PSoC4/PWM.c **** *  None
 550:Generated_Source\PSoC4/PWM.c **** *
 551:Generated_Source\PSoC4/PWM.c **** *******************************************************************************/
 552:Generated_Source\PSoC4/PWM.c **** void PWM_SetPWMDeadTime(uint32 deadTime)
 553:Generated_Source\PSoC4/PWM.c **** {
 424              		.loc 1 553 0
 425              		.cfi_startproc
 426              		@ args = 0, pretend = 0, frame = 0
 427              		@ frame_needed = 0, uses_anonymous_args = 0
 428              	.LVL30:
 429 0000 10B5     		push	{r4, lr}
 430              		.cfi_def_cfa_offset 8
 431              		.cfi_offset 4, -8
 432              		.cfi_offset 14, -4
 433 0002 0400     		movs	r4, r0
 554:Generated_Source\PSoC4/PWM.c ****     uint8 enableInterrupts;
 555:Generated_Source\PSoC4/PWM.c **** 
 556:Generated_Source\PSoC4/PWM.c ****     enableInterrupts = CyEnterCriticalSection();
 434              		.loc 1 556 0
 435 0004 FFF7FEFF 		bl	CyEnterCriticalSection
 436              	.LVL31:
 557:Generated_Source\PSoC4/PWM.c **** 
 558:Generated_Source\PSoC4/PWM.c ****     PWM_CONTROL_REG &= (uint32)~PWM_PRESCALER_MASK;
 437              		.loc 1 558 0
 438 0008 064B     		ldr	r3, .L29
 439 000a 1968     		ldr	r1, [r3]
 440 000c 064A     		ldr	r2, .L29+4
 441 000e 0A40     		ands	r2, r1
 442 0010 1A60     		str	r2, [r3]
 559:Generated_Source\PSoC4/PWM.c ****     PWM_CONTROL_REG |= ((uint32)((deadTime & PWM_8BIT_MASK) <<
 443              		.loc 1 559 0
 444 0012 1A68     		ldr	r2, [r3]
 445 0014 2406     		lsls	r4, r4, #24
 446              	.LVL32:
 447 0016 240C     		lsrs	r4, r4, #16
 448 0018 1443     		orrs	r4, r2
 449 001a 1C60     		str	r4, [r3]
 560:Generated_Source\PSoC4/PWM.c ****                                                           PWM_PRESCALER_SHIFT));
 561:Generated_Source\PSoC4/PWM.c **** 
 562:Generated_Source\PSoC4/PWM.c ****     CyExitCriticalSection(enableInterrupts);
 450              		.loc 1 562 0
 451 001c FFF7FEFF 		bl	CyExitCriticalSection
 452              	.LVL33:
 563:Generated_Source\PSoC4/PWM.c **** }
 453              		.loc 1 563 0
 454              		@ sp needed
 455 0020 10BD     		pop	{r4, pc}
 456              	.L30:
 457 0022 C046     		.align	2
 458              	.L29:
 459 0024 C0010640 		.word	1074135488
 460 0028 FF00FFFF 		.word	-65281
 461              		.cfi_endproc
 462              	.LFE12:
 463              		.size	PWM_SetPWMDeadTime, .-PWM_SetPWMDeadTime
ARM GAS  C:\Users\Lenovo\AppData\Local\Temp\ccXXud0b.s 			page 19


 464              		.section	.text.PWM_SetPWMInvert,"ax",%progbits
 465              		.align	2
 466              		.global	PWM_SetPWMInvert
 467              		.code	16
 468              		.thumb_func
 469              		.type	PWM_SetPWMInvert, %function
 470              	PWM_SetPWMInvert:
 471              	.LFB13:
 564:Generated_Source\PSoC4/PWM.c **** 
 565:Generated_Source\PSoC4/PWM.c **** 
 566:Generated_Source\PSoC4/PWM.c **** /*******************************************************************************
 567:Generated_Source\PSoC4/PWM.c **** * Function Name: PWM_SetPWMInvert
 568:Generated_Source\PSoC4/PWM.c **** ********************************************************************************
 569:Generated_Source\PSoC4/PWM.c **** *
 570:Generated_Source\PSoC4/PWM.c **** * Summary:
 571:Generated_Source\PSoC4/PWM.c **** *  Writes the bits that control whether the line and line_n outputs are
 572:Generated_Source\PSoC4/PWM.c **** *  inverted from their normal output values.  This functionality is only
 573:Generated_Source\PSoC4/PWM.c **** *  applicable to the three PWM modes.
 574:Generated_Source\PSoC4/PWM.c **** *
 575:Generated_Source\PSoC4/PWM.c **** * Parameters:
 576:Generated_Source\PSoC4/PWM.c **** *  mask: Mask of outputs to invert.
 577:Generated_Source\PSoC4/PWM.c **** *   Values:
 578:Generated_Source\PSoC4/PWM.c **** *         - PWM_INVERT_LINE   - Inverts the line output
 579:Generated_Source\PSoC4/PWM.c **** *         - PWM_INVERT_LINE_N - Inverts the line_n output
 580:Generated_Source\PSoC4/PWM.c **** *
 581:Generated_Source\PSoC4/PWM.c **** * Return:
 582:Generated_Source\PSoC4/PWM.c **** *  None
 583:Generated_Source\PSoC4/PWM.c **** *
 584:Generated_Source\PSoC4/PWM.c **** *******************************************************************************/
 585:Generated_Source\PSoC4/PWM.c **** void PWM_SetPWMInvert(uint32 mask)
 586:Generated_Source\PSoC4/PWM.c **** {
 472              		.loc 1 586 0
 473              		.cfi_startproc
 474              		@ args = 0, pretend = 0, frame = 0
 475              		@ frame_needed = 0, uses_anonymous_args = 0
 476              	.LVL34:
 477 0000 10B5     		push	{r4, lr}
 478              		.cfi_def_cfa_offset 8
 479              		.cfi_offset 4, -8
 480              		.cfi_offset 14, -4
 481 0002 0400     		movs	r4, r0
 587:Generated_Source\PSoC4/PWM.c ****     uint8 enableInterrupts;
 588:Generated_Source\PSoC4/PWM.c **** 
 589:Generated_Source\PSoC4/PWM.c ****     enableInterrupts = CyEnterCriticalSection();
 482              		.loc 1 589 0
 483 0004 FFF7FEFF 		bl	CyEnterCriticalSection
 484              	.LVL35:
 590:Generated_Source\PSoC4/PWM.c **** 
 591:Generated_Source\PSoC4/PWM.c ****     PWM_CONTROL_REG &= (uint32)~PWM_INV_OUT_MASK;
 485              		.loc 1 591 0
 486 0008 054B     		ldr	r3, .L32
 487 000a 1968     		ldr	r1, [r3]
 488 000c 054A     		ldr	r2, .L32+4
 489 000e 0A40     		ands	r2, r1
 490 0010 1A60     		str	r2, [r3]
 592:Generated_Source\PSoC4/PWM.c ****     PWM_CONTROL_REG |= mask;
 491              		.loc 1 592 0
ARM GAS  C:\Users\Lenovo\AppData\Local\Temp\ccXXud0b.s 			page 20


 492 0012 1A68     		ldr	r2, [r3]
 493 0014 1443     		orrs	r4, r2
 494              	.LVL36:
 495 0016 1C60     		str	r4, [r3]
 593:Generated_Source\PSoC4/PWM.c **** 
 594:Generated_Source\PSoC4/PWM.c ****     CyExitCriticalSection(enableInterrupts);
 496              		.loc 1 594 0
 497 0018 FFF7FEFF 		bl	CyExitCriticalSection
 498              	.LVL37:
 595:Generated_Source\PSoC4/PWM.c **** }
 499              		.loc 1 595 0
 500              		@ sp needed
 501 001c 10BD     		pop	{r4, pc}
 502              	.L33:
 503 001e C046     		.align	2
 504              	.L32:
 505 0020 C0010640 		.word	1074135488
 506 0024 FFFFCFFF 		.word	-3145729
 507              		.cfi_endproc
 508              	.LFE13:
 509              		.size	PWM_SetPWMInvert, .-PWM_SetPWMInvert
 510              		.section	.text.PWM_WriteCounter,"ax",%progbits
 511              		.align	2
 512              		.global	PWM_WriteCounter
 513              		.code	16
 514              		.thumb_func
 515              		.type	PWM_WriteCounter, %function
 516              	PWM_WriteCounter:
 517              	.LFB14:
 596:Generated_Source\PSoC4/PWM.c **** 
 597:Generated_Source\PSoC4/PWM.c **** 
 598:Generated_Source\PSoC4/PWM.c **** 
 599:Generated_Source\PSoC4/PWM.c **** /*******************************************************************************
 600:Generated_Source\PSoC4/PWM.c **** * Function Name: PWM_WriteCounter
 601:Generated_Source\PSoC4/PWM.c **** ********************************************************************************
 602:Generated_Source\PSoC4/PWM.c **** *
 603:Generated_Source\PSoC4/PWM.c **** * Summary:
 604:Generated_Source\PSoC4/PWM.c **** *  Writes a new 16bit counter value directly into the counter register, thus
 605:Generated_Source\PSoC4/PWM.c **** *  setting the counter (not the period) to the value written. It is not
 606:Generated_Source\PSoC4/PWM.c **** *  advised to write to this field when the counter is running.
 607:Generated_Source\PSoC4/PWM.c **** *
 608:Generated_Source\PSoC4/PWM.c **** * Parameters:
 609:Generated_Source\PSoC4/PWM.c **** *  count: value to write
 610:Generated_Source\PSoC4/PWM.c **** *
 611:Generated_Source\PSoC4/PWM.c **** * Return:
 612:Generated_Source\PSoC4/PWM.c **** *  None
 613:Generated_Source\PSoC4/PWM.c **** *
 614:Generated_Source\PSoC4/PWM.c **** *******************************************************************************/
 615:Generated_Source\PSoC4/PWM.c **** void PWM_WriteCounter(uint32 count)
 616:Generated_Source\PSoC4/PWM.c **** {
 518              		.loc 1 616 0
 519              		.cfi_startproc
 520              		@ args = 0, pretend = 0, frame = 0
 521              		@ frame_needed = 0, uses_anonymous_args = 0
 522              		@ link register save eliminated.
 523              	.LVL38:
 617:Generated_Source\PSoC4/PWM.c ****     PWM_COUNTER_REG = (count & PWM_16BIT_MASK);
ARM GAS  C:\Users\Lenovo\AppData\Local\Temp\ccXXud0b.s 			page 21


 524              		.loc 1 617 0
 525 0000 0004     		lsls	r0, r0, #16
 526              	.LVL39:
 527 0002 000C     		lsrs	r0, r0, #16
 528 0004 014B     		ldr	r3, .L35
 529 0006 1860     		str	r0, [r3]
 618:Generated_Source\PSoC4/PWM.c **** }
 530              		.loc 1 618 0
 531              		@ sp needed
 532 0008 7047     		bx	lr
 533              	.L36:
 534 000a C046     		.align	2
 535              	.L35:
 536 000c C8010640 		.word	1074135496
 537              		.cfi_endproc
 538              	.LFE14:
 539              		.size	PWM_WriteCounter, .-PWM_WriteCounter
 540              		.section	.text.PWM_ReadCounter,"ax",%progbits
 541              		.align	2
 542              		.global	PWM_ReadCounter
 543              		.code	16
 544              		.thumb_func
 545              		.type	PWM_ReadCounter, %function
 546              	PWM_ReadCounter:
 547              	.LFB15:
 619:Generated_Source\PSoC4/PWM.c **** 
 620:Generated_Source\PSoC4/PWM.c **** 
 621:Generated_Source\PSoC4/PWM.c **** /*******************************************************************************
 622:Generated_Source\PSoC4/PWM.c **** * Function Name: PWM_ReadCounter
 623:Generated_Source\PSoC4/PWM.c **** ********************************************************************************
 624:Generated_Source\PSoC4/PWM.c **** *
 625:Generated_Source\PSoC4/PWM.c **** * Summary:
 626:Generated_Source\PSoC4/PWM.c **** *  Reads the current counter value.
 627:Generated_Source\PSoC4/PWM.c **** *
 628:Generated_Source\PSoC4/PWM.c **** * Parameters:
 629:Generated_Source\PSoC4/PWM.c **** *  None
 630:Generated_Source\PSoC4/PWM.c **** *
 631:Generated_Source\PSoC4/PWM.c **** * Return:
 632:Generated_Source\PSoC4/PWM.c **** *  Current counter value
 633:Generated_Source\PSoC4/PWM.c **** *
 634:Generated_Source\PSoC4/PWM.c **** *******************************************************************************/
 635:Generated_Source\PSoC4/PWM.c **** uint32 PWM_ReadCounter(void)
 636:Generated_Source\PSoC4/PWM.c **** {
 548              		.loc 1 636 0
 549              		.cfi_startproc
 550              		@ args = 0, pretend = 0, frame = 0
 551              		@ frame_needed = 0, uses_anonymous_args = 0
 552              		@ link register save eliminated.
 637:Generated_Source\PSoC4/PWM.c ****     return (PWM_COUNTER_REG & PWM_16BIT_MASK);
 553              		.loc 1 637 0
 554 0000 024B     		ldr	r3, .L38
 555 0002 1868     		ldr	r0, [r3]
 556 0004 0004     		lsls	r0, r0, #16
 557 0006 000C     		lsrs	r0, r0, #16
 638:Generated_Source\PSoC4/PWM.c **** }
 558              		.loc 1 638 0
 559              		@ sp needed
ARM GAS  C:\Users\Lenovo\AppData\Local\Temp\ccXXud0b.s 			page 22


 560 0008 7047     		bx	lr
 561              	.L39:
 562 000a C046     		.align	2
 563              	.L38:
 564 000c C8010640 		.word	1074135496
 565              		.cfi_endproc
 566              	.LFE15:
 567              		.size	PWM_ReadCounter, .-PWM_ReadCounter
 568              		.section	.text.PWM_SetCounterMode,"ax",%progbits
 569              		.align	2
 570              		.global	PWM_SetCounterMode
 571              		.code	16
 572              		.thumb_func
 573              		.type	PWM_SetCounterMode, %function
 574              	PWM_SetCounterMode:
 575              	.LFB16:
 639:Generated_Source\PSoC4/PWM.c **** 
 640:Generated_Source\PSoC4/PWM.c **** 
 641:Generated_Source\PSoC4/PWM.c **** /*******************************************************************************
 642:Generated_Source\PSoC4/PWM.c **** * Function Name: PWM_SetCounterMode
 643:Generated_Source\PSoC4/PWM.c **** ********************************************************************************
 644:Generated_Source\PSoC4/PWM.c **** *
 645:Generated_Source\PSoC4/PWM.c **** * Summary:
 646:Generated_Source\PSoC4/PWM.c **** *  Sets the counter mode.  Applicable to all modes except Quadrature Decoder
 647:Generated_Source\PSoC4/PWM.c **** *  and the PWM with a pseudo random output.
 648:Generated_Source\PSoC4/PWM.c **** *
 649:Generated_Source\PSoC4/PWM.c **** * Parameters:
 650:Generated_Source\PSoC4/PWM.c **** *  counterMode: Enumerated counter type values
 651:Generated_Source\PSoC4/PWM.c **** *   Values:
 652:Generated_Source\PSoC4/PWM.c **** *     - PWM_COUNT_UP       - Counts up
 653:Generated_Source\PSoC4/PWM.c **** *     - PWM_COUNT_DOWN     - Counts down
 654:Generated_Source\PSoC4/PWM.c **** *     - PWM_COUNT_UPDOWN0  - Counts up and down. Terminal count
 655:Generated_Source\PSoC4/PWM.c **** *                                         generated when counter reaches 0
 656:Generated_Source\PSoC4/PWM.c **** *     - PWM_COUNT_UPDOWN1  - Counts up and down. Terminal count
 657:Generated_Source\PSoC4/PWM.c **** *                                         generated both when counter reaches 0
 658:Generated_Source\PSoC4/PWM.c **** *                                         and period
 659:Generated_Source\PSoC4/PWM.c **** *
 660:Generated_Source\PSoC4/PWM.c **** * Return:
 661:Generated_Source\PSoC4/PWM.c **** *  None
 662:Generated_Source\PSoC4/PWM.c **** *
 663:Generated_Source\PSoC4/PWM.c **** *******************************************************************************/
 664:Generated_Source\PSoC4/PWM.c **** void PWM_SetCounterMode(uint32 counterMode)
 665:Generated_Source\PSoC4/PWM.c **** {
 576              		.loc 1 665 0
 577              		.cfi_startproc
 578              		@ args = 0, pretend = 0, frame = 0
 579              		@ frame_needed = 0, uses_anonymous_args = 0
 580              	.LVL40:
 581 0000 10B5     		push	{r4, lr}
 582              		.cfi_def_cfa_offset 8
 583              		.cfi_offset 4, -8
 584              		.cfi_offset 14, -4
 585 0002 0400     		movs	r4, r0
 666:Generated_Source\PSoC4/PWM.c ****     uint8 enableInterrupts;
 667:Generated_Source\PSoC4/PWM.c **** 
 668:Generated_Source\PSoC4/PWM.c ****     enableInterrupts = CyEnterCriticalSection();
 586              		.loc 1 668 0
ARM GAS  C:\Users\Lenovo\AppData\Local\Temp\ccXXud0b.s 			page 23


 587 0004 FFF7FEFF 		bl	CyEnterCriticalSection
 588              	.LVL41:
 669:Generated_Source\PSoC4/PWM.c **** 
 670:Generated_Source\PSoC4/PWM.c ****     PWM_CONTROL_REG &= (uint32)~PWM_UPDOWN_MASK;
 589              		.loc 1 670 0
 590 0008 054B     		ldr	r3, .L41
 591 000a 1968     		ldr	r1, [r3]
 592 000c 054A     		ldr	r2, .L41+4
 593 000e 0A40     		ands	r2, r1
 594 0010 1A60     		str	r2, [r3]
 671:Generated_Source\PSoC4/PWM.c ****     PWM_CONTROL_REG |= counterMode;
 595              		.loc 1 671 0
 596 0012 1A68     		ldr	r2, [r3]
 597 0014 1443     		orrs	r4, r2
 598              	.LVL42:
 599 0016 1C60     		str	r4, [r3]
 672:Generated_Source\PSoC4/PWM.c **** 
 673:Generated_Source\PSoC4/PWM.c ****     CyExitCriticalSection(enableInterrupts);
 600              		.loc 1 673 0
 601 0018 FFF7FEFF 		bl	CyExitCriticalSection
 602              	.LVL43:
 674:Generated_Source\PSoC4/PWM.c **** }
 603              		.loc 1 674 0
 604              		@ sp needed
 605 001c 10BD     		pop	{r4, pc}
 606              	.L42:
 607 001e C046     		.align	2
 608              	.L41:
 609 0020 C0010640 		.word	1074135488
 610 0024 FFFFFCFF 		.word	-196609
 611              		.cfi_endproc
 612              	.LFE16:
 613              		.size	PWM_SetCounterMode, .-PWM_SetCounterMode
 614              		.section	.text.PWM_WritePeriod,"ax",%progbits
 615              		.align	2
 616              		.global	PWM_WritePeriod
 617              		.code	16
 618              		.thumb_func
 619              		.type	PWM_WritePeriod, %function
 620              	PWM_WritePeriod:
 621              	.LFB17:
 675:Generated_Source\PSoC4/PWM.c **** 
 676:Generated_Source\PSoC4/PWM.c **** 
 677:Generated_Source\PSoC4/PWM.c **** /*******************************************************************************
 678:Generated_Source\PSoC4/PWM.c **** * Function Name: PWM_WritePeriod
 679:Generated_Source\PSoC4/PWM.c **** ********************************************************************************
 680:Generated_Source\PSoC4/PWM.c **** *
 681:Generated_Source\PSoC4/PWM.c **** * Summary:
 682:Generated_Source\PSoC4/PWM.c **** *  Writes the 16 bit period register with the new period value.
 683:Generated_Source\PSoC4/PWM.c **** *  To cause the counter to count for N cycles this register should be written
 684:Generated_Source\PSoC4/PWM.c **** *  with N-1 (counts from 0 to period inclusive).
 685:Generated_Source\PSoC4/PWM.c **** *
 686:Generated_Source\PSoC4/PWM.c **** * Parameters:
 687:Generated_Source\PSoC4/PWM.c **** *  period: Period value
 688:Generated_Source\PSoC4/PWM.c **** *
 689:Generated_Source\PSoC4/PWM.c **** * Return:
 690:Generated_Source\PSoC4/PWM.c **** *  None
ARM GAS  C:\Users\Lenovo\AppData\Local\Temp\ccXXud0b.s 			page 24


 691:Generated_Source\PSoC4/PWM.c **** *
 692:Generated_Source\PSoC4/PWM.c **** *******************************************************************************/
 693:Generated_Source\PSoC4/PWM.c **** void PWM_WritePeriod(uint32 period)
 694:Generated_Source\PSoC4/PWM.c **** {
 622              		.loc 1 694 0
 623              		.cfi_startproc
 624              		@ args = 0, pretend = 0, frame = 0
 625              		@ frame_needed = 0, uses_anonymous_args = 0
 626              		@ link register save eliminated.
 627              	.LVL44:
 695:Generated_Source\PSoC4/PWM.c ****     PWM_PERIOD_REG = (period & PWM_16BIT_MASK);
 628              		.loc 1 695 0
 629 0000 0004     		lsls	r0, r0, #16
 630              	.LVL45:
 631 0002 000C     		lsrs	r0, r0, #16
 632 0004 014B     		ldr	r3, .L44
 633 0006 1860     		str	r0, [r3]
 696:Generated_Source\PSoC4/PWM.c **** }
 634              		.loc 1 696 0
 635              		@ sp needed
 636 0008 7047     		bx	lr
 637              	.L45:
 638 000a C046     		.align	2
 639              	.L44:
 640 000c D4010640 		.word	1074135508
 641              		.cfi_endproc
 642              	.LFE17:
 643              		.size	PWM_WritePeriod, .-PWM_WritePeriod
 644              		.section	.text.PWM_ReadPeriod,"ax",%progbits
 645              		.align	2
 646              		.global	PWM_ReadPeriod
 647              		.code	16
 648              		.thumb_func
 649              		.type	PWM_ReadPeriod, %function
 650              	PWM_ReadPeriod:
 651              	.LFB18:
 697:Generated_Source\PSoC4/PWM.c **** 
 698:Generated_Source\PSoC4/PWM.c **** 
 699:Generated_Source\PSoC4/PWM.c **** /*******************************************************************************
 700:Generated_Source\PSoC4/PWM.c **** * Function Name: PWM_ReadPeriod
 701:Generated_Source\PSoC4/PWM.c **** ********************************************************************************
 702:Generated_Source\PSoC4/PWM.c **** *
 703:Generated_Source\PSoC4/PWM.c **** * Summary:
 704:Generated_Source\PSoC4/PWM.c **** *  Reads the 16 bit period register.
 705:Generated_Source\PSoC4/PWM.c **** *
 706:Generated_Source\PSoC4/PWM.c **** * Parameters:
 707:Generated_Source\PSoC4/PWM.c **** *  None
 708:Generated_Source\PSoC4/PWM.c **** *
 709:Generated_Source\PSoC4/PWM.c **** * Return:
 710:Generated_Source\PSoC4/PWM.c **** *  Period value
 711:Generated_Source\PSoC4/PWM.c **** *
 712:Generated_Source\PSoC4/PWM.c **** *******************************************************************************/
 713:Generated_Source\PSoC4/PWM.c **** uint32 PWM_ReadPeriod(void)
 714:Generated_Source\PSoC4/PWM.c **** {
 652              		.loc 1 714 0
 653              		.cfi_startproc
 654              		@ args = 0, pretend = 0, frame = 0
ARM GAS  C:\Users\Lenovo\AppData\Local\Temp\ccXXud0b.s 			page 25


 655              		@ frame_needed = 0, uses_anonymous_args = 0
 656              		@ link register save eliminated.
 715:Generated_Source\PSoC4/PWM.c ****     return (PWM_PERIOD_REG & PWM_16BIT_MASK);
 657              		.loc 1 715 0
 658 0000 024B     		ldr	r3, .L47
 659 0002 1868     		ldr	r0, [r3]
 660 0004 0004     		lsls	r0, r0, #16
 661 0006 000C     		lsrs	r0, r0, #16
 716:Generated_Source\PSoC4/PWM.c **** }
 662              		.loc 1 716 0
 663              		@ sp needed
 664 0008 7047     		bx	lr
 665              	.L48:
 666 000a C046     		.align	2
 667              	.L47:
 668 000c D4010640 		.word	1074135508
 669              		.cfi_endproc
 670              	.LFE18:
 671              		.size	PWM_ReadPeriod, .-PWM_ReadPeriod
 672              		.section	.text.PWM_SetCompareSwap,"ax",%progbits
 673              		.align	2
 674              		.global	PWM_SetCompareSwap
 675              		.code	16
 676              		.thumb_func
 677              		.type	PWM_SetCompareSwap, %function
 678              	PWM_SetCompareSwap:
 679              	.LFB19:
 717:Generated_Source\PSoC4/PWM.c **** 
 718:Generated_Source\PSoC4/PWM.c **** 
 719:Generated_Source\PSoC4/PWM.c **** /*******************************************************************************
 720:Generated_Source\PSoC4/PWM.c **** * Function Name: PWM_SetCompareSwap
 721:Generated_Source\PSoC4/PWM.c **** ********************************************************************************
 722:Generated_Source\PSoC4/PWM.c **** *
 723:Generated_Source\PSoC4/PWM.c **** * Summary:
 724:Generated_Source\PSoC4/PWM.c **** *  Writes the register that controls whether the compare registers are
 725:Generated_Source\PSoC4/PWM.c **** *  swapped. When enabled in the Timer/Counter mode(without capture) the swap
 726:Generated_Source\PSoC4/PWM.c **** *  occurs at a TC event. In the PWM mode the swap occurs at the next TC event
 727:Generated_Source\PSoC4/PWM.c **** *  following a hardware switch event.
 728:Generated_Source\PSoC4/PWM.c **** *
 729:Generated_Source\PSoC4/PWM.c **** * Parameters:
 730:Generated_Source\PSoC4/PWM.c **** *  swapEnable
 731:Generated_Source\PSoC4/PWM.c **** *   Values:
 732:Generated_Source\PSoC4/PWM.c **** *     - 0 - Disable swap
 733:Generated_Source\PSoC4/PWM.c **** *     - 1 - Enable swap
 734:Generated_Source\PSoC4/PWM.c **** *
 735:Generated_Source\PSoC4/PWM.c **** * Return:
 736:Generated_Source\PSoC4/PWM.c **** *  None
 737:Generated_Source\PSoC4/PWM.c **** *
 738:Generated_Source\PSoC4/PWM.c **** *******************************************************************************/
 739:Generated_Source\PSoC4/PWM.c **** void PWM_SetCompareSwap(uint32 swapEnable)
 740:Generated_Source\PSoC4/PWM.c **** {
 680              		.loc 1 740 0
 681              		.cfi_startproc
 682              		@ args = 0, pretend = 0, frame = 0
 683              		@ frame_needed = 0, uses_anonymous_args = 0
 684              	.LVL46:
 685 0000 10B5     		push	{r4, lr}
ARM GAS  C:\Users\Lenovo\AppData\Local\Temp\ccXXud0b.s 			page 26


 686              		.cfi_def_cfa_offset 8
 687              		.cfi_offset 4, -8
 688              		.cfi_offset 14, -4
 689 0002 0400     		movs	r4, r0
 741:Generated_Source\PSoC4/PWM.c ****     uint8 enableInterrupts;
 742:Generated_Source\PSoC4/PWM.c **** 
 743:Generated_Source\PSoC4/PWM.c ****     enableInterrupts = CyEnterCriticalSection();
 690              		.loc 1 743 0
 691 0004 FFF7FEFF 		bl	CyEnterCriticalSection
 692              	.LVL47:
 744:Generated_Source\PSoC4/PWM.c **** 
 745:Generated_Source\PSoC4/PWM.c ****     PWM_CONTROL_REG &= (uint32)~PWM_RELOAD_CC_MASK;
 693              		.loc 1 745 0
 694 0008 054B     		ldr	r3, .L50
 695 000a 1A68     		ldr	r2, [r3]
 696 000c 0121     		movs	r1, #1
 697 000e 8A43     		bics	r2, r1
 698 0010 1A60     		str	r2, [r3]
 746:Generated_Source\PSoC4/PWM.c ****     PWM_CONTROL_REG |= (swapEnable & PWM_1BIT_MASK);
 699              		.loc 1 746 0
 700 0012 1A68     		ldr	r2, [r3]
 701 0014 0C40     		ands	r4, r1
 702              	.LVL48:
 703 0016 1443     		orrs	r4, r2
 704 0018 1C60     		str	r4, [r3]
 747:Generated_Source\PSoC4/PWM.c **** 
 748:Generated_Source\PSoC4/PWM.c ****     CyExitCriticalSection(enableInterrupts);
 705              		.loc 1 748 0
 706 001a FFF7FEFF 		bl	CyExitCriticalSection
 707              	.LVL49:
 749:Generated_Source\PSoC4/PWM.c **** }
 708              		.loc 1 749 0
 709              		@ sp needed
 710 001e 10BD     		pop	{r4, pc}
 711              	.L51:
 712              		.align	2
 713              	.L50:
 714 0020 C0010640 		.word	1074135488
 715              		.cfi_endproc
 716              	.LFE19:
 717              		.size	PWM_SetCompareSwap, .-PWM_SetCompareSwap
 718              		.section	.text.PWM_WritePeriodBuf,"ax",%progbits
 719              		.align	2
 720              		.global	PWM_WritePeriodBuf
 721              		.code	16
 722              		.thumb_func
 723              		.type	PWM_WritePeriodBuf, %function
 724              	PWM_WritePeriodBuf:
 725              	.LFB20:
 750:Generated_Source\PSoC4/PWM.c **** 
 751:Generated_Source\PSoC4/PWM.c **** 
 752:Generated_Source\PSoC4/PWM.c **** /*******************************************************************************
 753:Generated_Source\PSoC4/PWM.c **** * Function Name: PWM_WritePeriodBuf
 754:Generated_Source\PSoC4/PWM.c **** ********************************************************************************
 755:Generated_Source\PSoC4/PWM.c **** *
 756:Generated_Source\PSoC4/PWM.c **** * Summary:
 757:Generated_Source\PSoC4/PWM.c **** *  Writes the 16 bit period buf register with the new period value.
ARM GAS  C:\Users\Lenovo\AppData\Local\Temp\ccXXud0b.s 			page 27


 758:Generated_Source\PSoC4/PWM.c **** *
 759:Generated_Source\PSoC4/PWM.c **** * Parameters:
 760:Generated_Source\PSoC4/PWM.c **** *  periodBuf: Period value
 761:Generated_Source\PSoC4/PWM.c **** *
 762:Generated_Source\PSoC4/PWM.c **** * Return:
 763:Generated_Source\PSoC4/PWM.c **** *  None
 764:Generated_Source\PSoC4/PWM.c **** *
 765:Generated_Source\PSoC4/PWM.c **** *******************************************************************************/
 766:Generated_Source\PSoC4/PWM.c **** void PWM_WritePeriodBuf(uint32 periodBuf)
 767:Generated_Source\PSoC4/PWM.c **** {
 726              		.loc 1 767 0
 727              		.cfi_startproc
 728              		@ args = 0, pretend = 0, frame = 0
 729              		@ frame_needed = 0, uses_anonymous_args = 0
 730              		@ link register save eliminated.
 731              	.LVL50:
 768:Generated_Source\PSoC4/PWM.c ****     PWM_PERIOD_BUF_REG = (periodBuf & PWM_16BIT_MASK);
 732              		.loc 1 768 0
 733 0000 0004     		lsls	r0, r0, #16
 734              	.LVL51:
 735 0002 000C     		lsrs	r0, r0, #16
 736 0004 014B     		ldr	r3, .L53
 737 0006 1860     		str	r0, [r3]
 769:Generated_Source\PSoC4/PWM.c **** }
 738              		.loc 1 769 0
 739              		@ sp needed
 740 0008 7047     		bx	lr
 741              	.L54:
 742 000a C046     		.align	2
 743              	.L53:
 744 000c D8010640 		.word	1074135512
 745              		.cfi_endproc
 746              	.LFE20:
 747              		.size	PWM_WritePeriodBuf, .-PWM_WritePeriodBuf
 748              		.section	.text.PWM_ReadPeriodBuf,"ax",%progbits
 749              		.align	2
 750              		.global	PWM_ReadPeriodBuf
 751              		.code	16
 752              		.thumb_func
 753              		.type	PWM_ReadPeriodBuf, %function
 754              	PWM_ReadPeriodBuf:
 755              	.LFB21:
 770:Generated_Source\PSoC4/PWM.c **** 
 771:Generated_Source\PSoC4/PWM.c **** 
 772:Generated_Source\PSoC4/PWM.c **** /*******************************************************************************
 773:Generated_Source\PSoC4/PWM.c **** * Function Name: PWM_ReadPeriodBuf
 774:Generated_Source\PSoC4/PWM.c **** ********************************************************************************
 775:Generated_Source\PSoC4/PWM.c **** *
 776:Generated_Source\PSoC4/PWM.c **** * Summary:
 777:Generated_Source\PSoC4/PWM.c **** *  Reads the 16 bit period buf register.
 778:Generated_Source\PSoC4/PWM.c **** *
 779:Generated_Source\PSoC4/PWM.c **** * Parameters:
 780:Generated_Source\PSoC4/PWM.c **** *  None
 781:Generated_Source\PSoC4/PWM.c **** *
 782:Generated_Source\PSoC4/PWM.c **** * Return:
 783:Generated_Source\PSoC4/PWM.c **** *  Period value
 784:Generated_Source\PSoC4/PWM.c **** *
ARM GAS  C:\Users\Lenovo\AppData\Local\Temp\ccXXud0b.s 			page 28


 785:Generated_Source\PSoC4/PWM.c **** *******************************************************************************/
 786:Generated_Source\PSoC4/PWM.c **** uint32 PWM_ReadPeriodBuf(void)
 787:Generated_Source\PSoC4/PWM.c **** {
 756              		.loc 1 787 0
 757              		.cfi_startproc
 758              		@ args = 0, pretend = 0, frame = 0
 759              		@ frame_needed = 0, uses_anonymous_args = 0
 760              		@ link register save eliminated.
 788:Generated_Source\PSoC4/PWM.c ****     return (PWM_PERIOD_BUF_REG & PWM_16BIT_MASK);
 761              		.loc 1 788 0
 762 0000 024B     		ldr	r3, .L56
 763 0002 1868     		ldr	r0, [r3]
 764 0004 0004     		lsls	r0, r0, #16
 765 0006 000C     		lsrs	r0, r0, #16
 789:Generated_Source\PSoC4/PWM.c **** }
 766              		.loc 1 789 0
 767              		@ sp needed
 768 0008 7047     		bx	lr
 769              	.L57:
 770 000a C046     		.align	2
 771              	.L56:
 772 000c D8010640 		.word	1074135512
 773              		.cfi_endproc
 774              	.LFE21:
 775              		.size	PWM_ReadPeriodBuf, .-PWM_ReadPeriodBuf
 776              		.section	.text.PWM_SetPeriodSwap,"ax",%progbits
 777              		.align	2
 778              		.global	PWM_SetPeriodSwap
 779              		.code	16
 780              		.thumb_func
 781              		.type	PWM_SetPeriodSwap, %function
 782              	PWM_SetPeriodSwap:
 783              	.LFB22:
 790:Generated_Source\PSoC4/PWM.c **** 
 791:Generated_Source\PSoC4/PWM.c **** 
 792:Generated_Source\PSoC4/PWM.c **** /*******************************************************************************
 793:Generated_Source\PSoC4/PWM.c **** * Function Name: PWM_SetPeriodSwap
 794:Generated_Source\PSoC4/PWM.c **** ********************************************************************************
 795:Generated_Source\PSoC4/PWM.c **** *
 796:Generated_Source\PSoC4/PWM.c **** * Summary:
 797:Generated_Source\PSoC4/PWM.c **** *  Writes the register that controls whether the period registers are
 798:Generated_Source\PSoC4/PWM.c **** *  swapped. When enabled in Timer/Counter mode the swap occurs at a TC event.
 799:Generated_Source\PSoC4/PWM.c **** *  In the PWM mode the swap occurs at the next TC event following a hardware
 800:Generated_Source\PSoC4/PWM.c **** *  switch event.
 801:Generated_Source\PSoC4/PWM.c **** *
 802:Generated_Source\PSoC4/PWM.c **** * Parameters:
 803:Generated_Source\PSoC4/PWM.c **** *  swapEnable
 804:Generated_Source\PSoC4/PWM.c **** *   Values:
 805:Generated_Source\PSoC4/PWM.c **** *     - 0 - Disable swap
 806:Generated_Source\PSoC4/PWM.c **** *     - 1 - Enable swap
 807:Generated_Source\PSoC4/PWM.c **** *
 808:Generated_Source\PSoC4/PWM.c **** * Return:
 809:Generated_Source\PSoC4/PWM.c **** *  None
 810:Generated_Source\PSoC4/PWM.c **** *
 811:Generated_Source\PSoC4/PWM.c **** *******************************************************************************/
 812:Generated_Source\PSoC4/PWM.c **** void PWM_SetPeriodSwap(uint32 swapEnable)
 813:Generated_Source\PSoC4/PWM.c **** {
ARM GAS  C:\Users\Lenovo\AppData\Local\Temp\ccXXud0b.s 			page 29


 784              		.loc 1 813 0
 785              		.cfi_startproc
 786              		@ args = 0, pretend = 0, frame = 0
 787              		@ frame_needed = 0, uses_anonymous_args = 0
 788              	.LVL52:
 789 0000 70B5     		push	{r4, r5, r6, lr}
 790              		.cfi_def_cfa_offset 16
 791              		.cfi_offset 4, -16
 792              		.cfi_offset 5, -12
 793              		.cfi_offset 6, -8
 794              		.cfi_offset 14, -4
 795 0002 0400     		movs	r4, r0
 814:Generated_Source\PSoC4/PWM.c ****     uint8 enableInterrupts;
 815:Generated_Source\PSoC4/PWM.c **** 
 816:Generated_Source\PSoC4/PWM.c ****     enableInterrupts = CyEnterCriticalSection();
 796              		.loc 1 816 0
 797 0004 FFF7FEFF 		bl	CyEnterCriticalSection
 798              	.LVL53:
 817:Generated_Source\PSoC4/PWM.c **** 
 818:Generated_Source\PSoC4/PWM.c ****     PWM_CONTROL_REG &= (uint32)~PWM_RELOAD_PERIOD_MASK;
 799              		.loc 1 818 0
 800 0008 064A     		ldr	r2, .L59
 801 000a 1368     		ldr	r3, [r2]
 802 000c 0221     		movs	r1, #2
 803 000e 8B43     		bics	r3, r1
 804 0010 1360     		str	r3, [r2]
 819:Generated_Source\PSoC4/PWM.c ****     PWM_CONTROL_REG |= ((uint32)((swapEnable & PWM_1BIT_MASK) <<
 805              		.loc 1 819 0
 806 0012 1568     		ldr	r5, [r2]
 807 0014 6300     		lsls	r3, r4, #1
 808 0016 1940     		ands	r1, r3
 809 0018 0C00     		movs	r4, r1
 810              	.LVL54:
 811 001a 2C43     		orrs	r4, r5
 812 001c 1460     		str	r4, [r2]
 820:Generated_Source\PSoC4/PWM.c ****                                                             PWM_RELOAD_PERIOD_SHIFT));
 821:Generated_Source\PSoC4/PWM.c **** 
 822:Generated_Source\PSoC4/PWM.c ****     CyExitCriticalSection(enableInterrupts);
 813              		.loc 1 822 0
 814 001e FFF7FEFF 		bl	CyExitCriticalSection
 815              	.LVL55:
 823:Generated_Source\PSoC4/PWM.c **** }
 816              		.loc 1 823 0
 817              		@ sp needed
 818 0022 70BD     		pop	{r4, r5, r6, pc}
 819              	.L60:
 820              		.align	2
 821              	.L59:
 822 0024 C0010640 		.word	1074135488
 823              		.cfi_endproc
 824              	.LFE22:
 825              		.size	PWM_SetPeriodSwap, .-PWM_SetPeriodSwap
 826              		.section	.text.PWM_WriteCompare,"ax",%progbits
 827              		.align	2
 828              		.global	PWM_WriteCompare
 829              		.code	16
 830              		.thumb_func
ARM GAS  C:\Users\Lenovo\AppData\Local\Temp\ccXXud0b.s 			page 30


 831              		.type	PWM_WriteCompare, %function
 832              	PWM_WriteCompare:
 833              	.LFB23:
 824:Generated_Source\PSoC4/PWM.c **** 
 825:Generated_Source\PSoC4/PWM.c **** 
 826:Generated_Source\PSoC4/PWM.c **** /*******************************************************************************
 827:Generated_Source\PSoC4/PWM.c **** * Function Name: PWM_WriteCompare
 828:Generated_Source\PSoC4/PWM.c **** ********************************************************************************
 829:Generated_Source\PSoC4/PWM.c **** *
 830:Generated_Source\PSoC4/PWM.c **** * Summary:
 831:Generated_Source\PSoC4/PWM.c **** *  Writes the 16 bit compare register with the new compare value. Not
 832:Generated_Source\PSoC4/PWM.c **** *  applicable for Timer/Counter with Capture or in Quadrature Decoder modes.
 833:Generated_Source\PSoC4/PWM.c **** *
 834:Generated_Source\PSoC4/PWM.c **** * Parameters:
 835:Generated_Source\PSoC4/PWM.c **** *  compare: Compare value
 836:Generated_Source\PSoC4/PWM.c **** *
 837:Generated_Source\PSoC4/PWM.c **** * Return:
 838:Generated_Source\PSoC4/PWM.c **** *  None
 839:Generated_Source\PSoC4/PWM.c **** *
 840:Generated_Source\PSoC4/PWM.c **** * Note:
 841:Generated_Source\PSoC4/PWM.c **** *  It is not recommended to use the value equal to "0" or equal to 
 842:Generated_Source\PSoC4/PWM.c **** *  "period value" in Center or Asymmetric align PWM modes on the 
 843:Generated_Source\PSoC4/PWM.c **** *  PSoC 4100/PSoC 4200 devices.
 844:Generated_Source\PSoC4/PWM.c **** *  PSoC 4000 devices write the 16 bit compare register with the decremented 
 845:Generated_Source\PSoC4/PWM.c **** *  compare value in the Up counting mode (except 0x0u), and the incremented 
 846:Generated_Source\PSoC4/PWM.c **** *  compare value in the Down counting mode (except 0xFFFFu).
 847:Generated_Source\PSoC4/PWM.c **** *
 848:Generated_Source\PSoC4/PWM.c **** *******************************************************************************/
 849:Generated_Source\PSoC4/PWM.c **** void PWM_WriteCompare(uint32 compare)
 850:Generated_Source\PSoC4/PWM.c **** {
 834              		.loc 1 850 0
 835              		.cfi_startproc
 836              		@ args = 0, pretend = 0, frame = 0
 837              		@ frame_needed = 0, uses_anonymous_args = 0
 838              		@ link register save eliminated.
 839              	.LVL56:
 851:Generated_Source\PSoC4/PWM.c ****     #if (PWM_CY_TCPWM_4000)
 852:Generated_Source\PSoC4/PWM.c ****         uint32 currentMode;
 853:Generated_Source\PSoC4/PWM.c ****     #endif /* (PWM_CY_TCPWM_4000) */
 854:Generated_Source\PSoC4/PWM.c **** 
 855:Generated_Source\PSoC4/PWM.c ****     #if (PWM_CY_TCPWM_4000)
 856:Generated_Source\PSoC4/PWM.c ****         currentMode = ((PWM_CONTROL_REG & PWM_UPDOWN_MASK) >> PWM_UPDOWN_SHIFT);
 857:Generated_Source\PSoC4/PWM.c **** 
 858:Generated_Source\PSoC4/PWM.c ****         if (((uint32)PWM__COUNT_DOWN == currentMode) && (0xFFFFu != compare))
 859:Generated_Source\PSoC4/PWM.c ****         {
 860:Generated_Source\PSoC4/PWM.c ****             compare++;
 861:Generated_Source\PSoC4/PWM.c ****         }
 862:Generated_Source\PSoC4/PWM.c ****         else if (((uint32)PWM__COUNT_UP == currentMode) && (0u != compare))
 863:Generated_Source\PSoC4/PWM.c ****         {
 864:Generated_Source\PSoC4/PWM.c ****             compare--;
 865:Generated_Source\PSoC4/PWM.c ****         }
 866:Generated_Source\PSoC4/PWM.c ****         else
 867:Generated_Source\PSoC4/PWM.c ****         {
 868:Generated_Source\PSoC4/PWM.c ****         }
 869:Generated_Source\PSoC4/PWM.c ****         
 870:Generated_Source\PSoC4/PWM.c ****     
 871:Generated_Source\PSoC4/PWM.c ****     #endif /* (PWM_CY_TCPWM_4000) */
ARM GAS  C:\Users\Lenovo\AppData\Local\Temp\ccXXud0b.s 			page 31


 872:Generated_Source\PSoC4/PWM.c ****     
 873:Generated_Source\PSoC4/PWM.c ****     PWM_COMP_CAP_REG = (compare & PWM_16BIT_MASK);
 840              		.loc 1 873 0
 841 0000 0004     		lsls	r0, r0, #16
 842              	.LVL57:
 843 0002 000C     		lsrs	r0, r0, #16
 844 0004 014B     		ldr	r3, .L62
 845 0006 1860     		str	r0, [r3]
 874:Generated_Source\PSoC4/PWM.c **** }
 846              		.loc 1 874 0
 847              		@ sp needed
 848 0008 7047     		bx	lr
 849              	.L63:
 850 000a C046     		.align	2
 851              	.L62:
 852 000c CC010640 		.word	1074135500
 853              		.cfi_endproc
 854              	.LFE23:
 855              		.size	PWM_WriteCompare, .-PWM_WriteCompare
 856              		.section	.text.PWM_ReadCompare,"ax",%progbits
 857              		.align	2
 858              		.global	PWM_ReadCompare
 859              		.code	16
 860              		.thumb_func
 861              		.type	PWM_ReadCompare, %function
 862              	PWM_ReadCompare:
 863              	.LFB24:
 875:Generated_Source\PSoC4/PWM.c **** 
 876:Generated_Source\PSoC4/PWM.c **** 
 877:Generated_Source\PSoC4/PWM.c **** /*******************************************************************************
 878:Generated_Source\PSoC4/PWM.c **** * Function Name: PWM_ReadCompare
 879:Generated_Source\PSoC4/PWM.c **** ********************************************************************************
 880:Generated_Source\PSoC4/PWM.c **** *
 881:Generated_Source\PSoC4/PWM.c **** * Summary:
 882:Generated_Source\PSoC4/PWM.c **** *  Reads the compare register. Not applicable for Timer/Counter with Capture
 883:Generated_Source\PSoC4/PWM.c **** *  or in Quadrature Decoder modes.
 884:Generated_Source\PSoC4/PWM.c **** *  PSoC 4000 devices read the incremented compare register value in the 
 885:Generated_Source\PSoC4/PWM.c **** *  Up counting mode (except 0xFFFFu), and the decremented value in the 
 886:Generated_Source\PSoC4/PWM.c **** *  Down counting mode (except 0x0u).
 887:Generated_Source\PSoC4/PWM.c **** *
 888:Generated_Source\PSoC4/PWM.c **** * Parameters:
 889:Generated_Source\PSoC4/PWM.c **** *  None
 890:Generated_Source\PSoC4/PWM.c **** *
 891:Generated_Source\PSoC4/PWM.c **** * Return:
 892:Generated_Source\PSoC4/PWM.c **** *  Compare value
 893:Generated_Source\PSoC4/PWM.c **** *
 894:Generated_Source\PSoC4/PWM.c **** * Note:
 895:Generated_Source\PSoC4/PWM.c **** *  PSoC 4000 devices read the incremented compare register value in the 
 896:Generated_Source\PSoC4/PWM.c **** *  Up counting mode (except 0xFFFFu), and the decremented value in the 
 897:Generated_Source\PSoC4/PWM.c **** *  Down counting mode (except 0x0u).
 898:Generated_Source\PSoC4/PWM.c **** *
 899:Generated_Source\PSoC4/PWM.c **** *******************************************************************************/
 900:Generated_Source\PSoC4/PWM.c **** uint32 PWM_ReadCompare(void)
 901:Generated_Source\PSoC4/PWM.c **** {
 864              		.loc 1 901 0
 865              		.cfi_startproc
 866              		@ args = 0, pretend = 0, frame = 0
ARM GAS  C:\Users\Lenovo\AppData\Local\Temp\ccXXud0b.s 			page 32


 867              		@ frame_needed = 0, uses_anonymous_args = 0
 868              		@ link register save eliminated.
 902:Generated_Source\PSoC4/PWM.c ****     #if (PWM_CY_TCPWM_4000)
 903:Generated_Source\PSoC4/PWM.c ****         uint32 currentMode;
 904:Generated_Source\PSoC4/PWM.c ****         uint32 regVal;
 905:Generated_Source\PSoC4/PWM.c ****     #endif /* (PWM_CY_TCPWM_4000) */
 906:Generated_Source\PSoC4/PWM.c **** 
 907:Generated_Source\PSoC4/PWM.c ****     #if (PWM_CY_TCPWM_4000)
 908:Generated_Source\PSoC4/PWM.c ****         currentMode = ((PWM_CONTROL_REG & PWM_UPDOWN_MASK) >> PWM_UPDOWN_SHIFT);
 909:Generated_Source\PSoC4/PWM.c ****         
 910:Generated_Source\PSoC4/PWM.c ****         regVal = PWM_COMP_CAP_REG;
 911:Generated_Source\PSoC4/PWM.c ****         
 912:Generated_Source\PSoC4/PWM.c ****         if (((uint32)PWM__COUNT_DOWN == currentMode) && (0u != regVal))
 913:Generated_Source\PSoC4/PWM.c ****         {
 914:Generated_Source\PSoC4/PWM.c ****             regVal--;
 915:Generated_Source\PSoC4/PWM.c ****         }
 916:Generated_Source\PSoC4/PWM.c ****         else if (((uint32)PWM__COUNT_UP == currentMode) && (0xFFFFu != regVal))
 917:Generated_Source\PSoC4/PWM.c ****         {
 918:Generated_Source\PSoC4/PWM.c ****             regVal++;
 919:Generated_Source\PSoC4/PWM.c ****         }
 920:Generated_Source\PSoC4/PWM.c ****         else
 921:Generated_Source\PSoC4/PWM.c ****         {
 922:Generated_Source\PSoC4/PWM.c ****         }
 923:Generated_Source\PSoC4/PWM.c **** 
 924:Generated_Source\PSoC4/PWM.c ****         return (regVal & PWM_16BIT_MASK);
 925:Generated_Source\PSoC4/PWM.c ****     #else
 926:Generated_Source\PSoC4/PWM.c ****         return (PWM_COMP_CAP_REG & PWM_16BIT_MASK);
 869              		.loc 1 926 0
 870 0000 024B     		ldr	r3, .L65
 871 0002 1868     		ldr	r0, [r3]
 872 0004 0004     		lsls	r0, r0, #16
 873 0006 000C     		lsrs	r0, r0, #16
 927:Generated_Source\PSoC4/PWM.c ****     #endif /* (PWM_CY_TCPWM_4000) */
 928:Generated_Source\PSoC4/PWM.c **** }
 874              		.loc 1 928 0
 875              		@ sp needed
 876 0008 7047     		bx	lr
 877              	.L66:
 878 000a C046     		.align	2
 879              	.L65:
 880 000c CC010640 		.word	1074135500
 881              		.cfi_endproc
 882              	.LFE24:
 883              		.size	PWM_ReadCompare, .-PWM_ReadCompare
 884              		.section	.text.PWM_WriteCompareBuf,"ax",%progbits
 885              		.align	2
 886              		.global	PWM_WriteCompareBuf
 887              		.code	16
 888              		.thumb_func
 889              		.type	PWM_WriteCompareBuf, %function
 890              	PWM_WriteCompareBuf:
 891              	.LFB25:
 929:Generated_Source\PSoC4/PWM.c **** 
 930:Generated_Source\PSoC4/PWM.c **** 
 931:Generated_Source\PSoC4/PWM.c **** /*******************************************************************************
 932:Generated_Source\PSoC4/PWM.c **** * Function Name: PWM_WriteCompareBuf
 933:Generated_Source\PSoC4/PWM.c **** ********************************************************************************
ARM GAS  C:\Users\Lenovo\AppData\Local\Temp\ccXXud0b.s 			page 33


 934:Generated_Source\PSoC4/PWM.c **** *
 935:Generated_Source\PSoC4/PWM.c **** * Summary:
 936:Generated_Source\PSoC4/PWM.c **** *  Writes the 16 bit compare buffer register with the new compare value. Not
 937:Generated_Source\PSoC4/PWM.c **** *  applicable for Timer/Counter with Capture or in Quadrature Decoder modes.
 938:Generated_Source\PSoC4/PWM.c **** *
 939:Generated_Source\PSoC4/PWM.c **** * Parameters:
 940:Generated_Source\PSoC4/PWM.c **** *  compareBuf: Compare value
 941:Generated_Source\PSoC4/PWM.c **** *
 942:Generated_Source\PSoC4/PWM.c **** * Return:
 943:Generated_Source\PSoC4/PWM.c **** *  None
 944:Generated_Source\PSoC4/PWM.c **** *
 945:Generated_Source\PSoC4/PWM.c **** * Note:
 946:Generated_Source\PSoC4/PWM.c **** *  It is not recommended to use the value equal to "0" or equal to 
 947:Generated_Source\PSoC4/PWM.c **** *  "period value" in Center or Asymmetric align PWM modes on the 
 948:Generated_Source\PSoC4/PWM.c **** *  PSoC 4100/PSoC 4200 devices.
 949:Generated_Source\PSoC4/PWM.c **** *  PSoC 4000 devices write the 16 bit compare register with the decremented 
 950:Generated_Source\PSoC4/PWM.c **** *  compare value in the Up counting mode (except 0x0u), and the incremented 
 951:Generated_Source\PSoC4/PWM.c **** *  compare value in the Down counting mode (except 0xFFFFu).
 952:Generated_Source\PSoC4/PWM.c **** *
 953:Generated_Source\PSoC4/PWM.c **** *******************************************************************************/
 954:Generated_Source\PSoC4/PWM.c **** void PWM_WriteCompareBuf(uint32 compareBuf)
 955:Generated_Source\PSoC4/PWM.c **** {
 892              		.loc 1 955 0
 893              		.cfi_startproc
 894              		@ args = 0, pretend = 0, frame = 0
 895              		@ frame_needed = 0, uses_anonymous_args = 0
 896              		@ link register save eliminated.
 897              	.LVL58:
 956:Generated_Source\PSoC4/PWM.c ****     #if (PWM_CY_TCPWM_4000)
 957:Generated_Source\PSoC4/PWM.c ****         uint32 currentMode;
 958:Generated_Source\PSoC4/PWM.c ****     #endif /* (PWM_CY_TCPWM_4000) */
 959:Generated_Source\PSoC4/PWM.c **** 
 960:Generated_Source\PSoC4/PWM.c ****     #if (PWM_CY_TCPWM_4000)
 961:Generated_Source\PSoC4/PWM.c ****         currentMode = ((PWM_CONTROL_REG & PWM_UPDOWN_MASK) >> PWM_UPDOWN_SHIFT);
 962:Generated_Source\PSoC4/PWM.c **** 
 963:Generated_Source\PSoC4/PWM.c ****         if (((uint32)PWM__COUNT_DOWN == currentMode) && (0xFFFFu != compareBuf))
 964:Generated_Source\PSoC4/PWM.c ****         {
 965:Generated_Source\PSoC4/PWM.c ****             compareBuf++;
 966:Generated_Source\PSoC4/PWM.c ****         }
 967:Generated_Source\PSoC4/PWM.c ****         else if (((uint32)PWM__COUNT_UP == currentMode) && (0u != compareBuf))
 968:Generated_Source\PSoC4/PWM.c ****         {
 969:Generated_Source\PSoC4/PWM.c ****             compareBuf --;
 970:Generated_Source\PSoC4/PWM.c ****         }
 971:Generated_Source\PSoC4/PWM.c ****         else
 972:Generated_Source\PSoC4/PWM.c ****         {
 973:Generated_Source\PSoC4/PWM.c ****         }
 974:Generated_Source\PSoC4/PWM.c ****     #endif /* (PWM_CY_TCPWM_4000) */
 975:Generated_Source\PSoC4/PWM.c ****     
 976:Generated_Source\PSoC4/PWM.c ****     PWM_COMP_CAP_BUF_REG = (compareBuf & PWM_16BIT_MASK);
 898              		.loc 1 976 0
 899 0000 0004     		lsls	r0, r0, #16
 900              	.LVL59:
 901 0002 000C     		lsrs	r0, r0, #16
 902 0004 014B     		ldr	r3, .L68
 903 0006 1860     		str	r0, [r3]
 977:Generated_Source\PSoC4/PWM.c **** }
 904              		.loc 1 977 0
ARM GAS  C:\Users\Lenovo\AppData\Local\Temp\ccXXud0b.s 			page 34


 905              		@ sp needed
 906 0008 7047     		bx	lr
 907              	.L69:
 908 000a C046     		.align	2
 909              	.L68:
 910 000c D0010640 		.word	1074135504
 911              		.cfi_endproc
 912              	.LFE25:
 913              		.size	PWM_WriteCompareBuf, .-PWM_WriteCompareBuf
 914              		.section	.text.PWM_ReadCompareBuf,"ax",%progbits
 915              		.align	2
 916              		.global	PWM_ReadCompareBuf
 917              		.code	16
 918              		.thumb_func
 919              		.type	PWM_ReadCompareBuf, %function
 920              	PWM_ReadCompareBuf:
 921              	.LFB26:
 978:Generated_Source\PSoC4/PWM.c **** 
 979:Generated_Source\PSoC4/PWM.c **** 
 980:Generated_Source\PSoC4/PWM.c **** /*******************************************************************************
 981:Generated_Source\PSoC4/PWM.c **** * Function Name: PWM_ReadCompareBuf
 982:Generated_Source\PSoC4/PWM.c **** ********************************************************************************
 983:Generated_Source\PSoC4/PWM.c **** *
 984:Generated_Source\PSoC4/PWM.c **** * Summary:
 985:Generated_Source\PSoC4/PWM.c **** *  Reads the compare buffer register. Not applicable for Timer/Counter with
 986:Generated_Source\PSoC4/PWM.c **** *  Capture or in Quadrature Decoder modes.
 987:Generated_Source\PSoC4/PWM.c **** *
 988:Generated_Source\PSoC4/PWM.c **** * Parameters:
 989:Generated_Source\PSoC4/PWM.c **** *  None
 990:Generated_Source\PSoC4/PWM.c **** *
 991:Generated_Source\PSoC4/PWM.c **** * Return:
 992:Generated_Source\PSoC4/PWM.c **** *  Compare buffer value
 993:Generated_Source\PSoC4/PWM.c **** *
 994:Generated_Source\PSoC4/PWM.c **** * Note:
 995:Generated_Source\PSoC4/PWM.c **** *  PSoC 4000 devices read the incremented compare register value in the 
 996:Generated_Source\PSoC4/PWM.c **** *  Up counting mode (except 0xFFFFu), and the decremented value in the 
 997:Generated_Source\PSoC4/PWM.c **** *  Down counting mode (except 0x0u).
 998:Generated_Source\PSoC4/PWM.c **** *
 999:Generated_Source\PSoC4/PWM.c **** *******************************************************************************/
1000:Generated_Source\PSoC4/PWM.c **** uint32 PWM_ReadCompareBuf(void)
1001:Generated_Source\PSoC4/PWM.c **** {
 922              		.loc 1 1001 0
 923              		.cfi_startproc
 924              		@ args = 0, pretend = 0, frame = 0
 925              		@ frame_needed = 0, uses_anonymous_args = 0
 926              		@ link register save eliminated.
1002:Generated_Source\PSoC4/PWM.c ****     #if (PWM_CY_TCPWM_4000)
1003:Generated_Source\PSoC4/PWM.c ****         uint32 currentMode;
1004:Generated_Source\PSoC4/PWM.c ****         uint32 regVal;
1005:Generated_Source\PSoC4/PWM.c ****     #endif /* (PWM_CY_TCPWM_4000) */
1006:Generated_Source\PSoC4/PWM.c **** 
1007:Generated_Source\PSoC4/PWM.c ****     #if (PWM_CY_TCPWM_4000)
1008:Generated_Source\PSoC4/PWM.c ****         currentMode = ((PWM_CONTROL_REG & PWM_UPDOWN_MASK) >> PWM_UPDOWN_SHIFT);
1009:Generated_Source\PSoC4/PWM.c **** 
1010:Generated_Source\PSoC4/PWM.c ****         regVal = PWM_COMP_CAP_BUF_REG;
1011:Generated_Source\PSoC4/PWM.c ****         
1012:Generated_Source\PSoC4/PWM.c ****         if (((uint32)PWM__COUNT_DOWN == currentMode) && (0u != regVal))
ARM GAS  C:\Users\Lenovo\AppData\Local\Temp\ccXXud0b.s 			page 35


1013:Generated_Source\PSoC4/PWM.c ****         {
1014:Generated_Source\PSoC4/PWM.c ****             regVal--;
1015:Generated_Source\PSoC4/PWM.c ****         }
1016:Generated_Source\PSoC4/PWM.c ****         else if (((uint32)PWM__COUNT_UP == currentMode) && (0xFFFFu != regVal))
1017:Generated_Source\PSoC4/PWM.c ****         {
1018:Generated_Source\PSoC4/PWM.c ****             regVal++;
1019:Generated_Source\PSoC4/PWM.c ****         }
1020:Generated_Source\PSoC4/PWM.c ****         else
1021:Generated_Source\PSoC4/PWM.c ****         {
1022:Generated_Source\PSoC4/PWM.c ****         }
1023:Generated_Source\PSoC4/PWM.c **** 
1024:Generated_Source\PSoC4/PWM.c ****         return (regVal & PWM_16BIT_MASK);
1025:Generated_Source\PSoC4/PWM.c ****     #else
1026:Generated_Source\PSoC4/PWM.c ****         return (PWM_COMP_CAP_BUF_REG & PWM_16BIT_MASK);
 927              		.loc 1 1026 0
 928 0000 024B     		ldr	r3, .L71
 929 0002 1868     		ldr	r0, [r3]
 930 0004 0004     		lsls	r0, r0, #16
 931 0006 000C     		lsrs	r0, r0, #16
1027:Generated_Source\PSoC4/PWM.c ****     #endif /* (PWM_CY_TCPWM_4000) */
1028:Generated_Source\PSoC4/PWM.c **** }
 932              		.loc 1 1028 0
 933              		@ sp needed
 934 0008 7047     		bx	lr
 935              	.L72:
 936 000a C046     		.align	2
 937              	.L71:
 938 000c D0010640 		.word	1074135504
 939              		.cfi_endproc
 940              	.LFE26:
 941              		.size	PWM_ReadCompareBuf, .-PWM_ReadCompareBuf
 942              		.section	.text.PWM_ReadCapture,"ax",%progbits
 943              		.align	2
 944              		.global	PWM_ReadCapture
 945              		.code	16
 946              		.thumb_func
 947              		.type	PWM_ReadCapture, %function
 948              	PWM_ReadCapture:
 949              	.LFB27:
1029:Generated_Source\PSoC4/PWM.c **** 
1030:Generated_Source\PSoC4/PWM.c **** 
1031:Generated_Source\PSoC4/PWM.c **** /*******************************************************************************
1032:Generated_Source\PSoC4/PWM.c **** * Function Name: PWM_ReadCapture
1033:Generated_Source\PSoC4/PWM.c **** ********************************************************************************
1034:Generated_Source\PSoC4/PWM.c **** *
1035:Generated_Source\PSoC4/PWM.c **** * Summary:
1036:Generated_Source\PSoC4/PWM.c **** *  Reads the captured counter value. This API is applicable only for
1037:Generated_Source\PSoC4/PWM.c **** *  Timer/Counter with the capture mode and Quadrature Decoder modes.
1038:Generated_Source\PSoC4/PWM.c **** *
1039:Generated_Source\PSoC4/PWM.c **** * Parameters:
1040:Generated_Source\PSoC4/PWM.c **** *  None
1041:Generated_Source\PSoC4/PWM.c **** *
1042:Generated_Source\PSoC4/PWM.c **** * Return:
1043:Generated_Source\PSoC4/PWM.c **** *  Capture value
1044:Generated_Source\PSoC4/PWM.c **** *
1045:Generated_Source\PSoC4/PWM.c **** *******************************************************************************/
1046:Generated_Source\PSoC4/PWM.c **** uint32 PWM_ReadCapture(void)
ARM GAS  C:\Users\Lenovo\AppData\Local\Temp\ccXXud0b.s 			page 36


1047:Generated_Source\PSoC4/PWM.c **** {
 950              		.loc 1 1047 0
 951              		.cfi_startproc
 952              		@ args = 0, pretend = 0, frame = 0
 953              		@ frame_needed = 0, uses_anonymous_args = 0
 954              		@ link register save eliminated.
1048:Generated_Source\PSoC4/PWM.c ****     return (PWM_COMP_CAP_REG & PWM_16BIT_MASK);
 955              		.loc 1 1048 0
 956 0000 024B     		ldr	r3, .L74
 957 0002 1868     		ldr	r0, [r3]
 958 0004 0004     		lsls	r0, r0, #16
 959 0006 000C     		lsrs	r0, r0, #16
1049:Generated_Source\PSoC4/PWM.c **** }
 960              		.loc 1 1049 0
 961              		@ sp needed
 962 0008 7047     		bx	lr
 963              	.L75:
 964 000a C046     		.align	2
 965              	.L74:
 966 000c CC010640 		.word	1074135500
 967              		.cfi_endproc
 968              	.LFE27:
 969              		.size	PWM_ReadCapture, .-PWM_ReadCapture
 970              		.section	.text.PWM_ReadCaptureBuf,"ax",%progbits
 971              		.align	2
 972              		.global	PWM_ReadCaptureBuf
 973              		.code	16
 974              		.thumb_func
 975              		.type	PWM_ReadCaptureBuf, %function
 976              	PWM_ReadCaptureBuf:
 977              	.LFB28:
1050:Generated_Source\PSoC4/PWM.c **** 
1051:Generated_Source\PSoC4/PWM.c **** 
1052:Generated_Source\PSoC4/PWM.c **** /*******************************************************************************
1053:Generated_Source\PSoC4/PWM.c **** * Function Name: PWM_ReadCaptureBuf
1054:Generated_Source\PSoC4/PWM.c **** ********************************************************************************
1055:Generated_Source\PSoC4/PWM.c **** *
1056:Generated_Source\PSoC4/PWM.c **** * Summary:
1057:Generated_Source\PSoC4/PWM.c **** *  Reads the capture buffer register. This API is applicable only for
1058:Generated_Source\PSoC4/PWM.c **** *  Timer/Counter with the capture mode and Quadrature Decoder modes.
1059:Generated_Source\PSoC4/PWM.c **** *
1060:Generated_Source\PSoC4/PWM.c **** * Parameters:
1061:Generated_Source\PSoC4/PWM.c **** *  None
1062:Generated_Source\PSoC4/PWM.c **** *
1063:Generated_Source\PSoC4/PWM.c **** * Return:
1064:Generated_Source\PSoC4/PWM.c **** *  Capture buffer value
1065:Generated_Source\PSoC4/PWM.c **** *
1066:Generated_Source\PSoC4/PWM.c **** *******************************************************************************/
1067:Generated_Source\PSoC4/PWM.c **** uint32 PWM_ReadCaptureBuf(void)
1068:Generated_Source\PSoC4/PWM.c **** {
 978              		.loc 1 1068 0
 979              		.cfi_startproc
 980              		@ args = 0, pretend = 0, frame = 0
 981              		@ frame_needed = 0, uses_anonymous_args = 0
 982              		@ link register save eliminated.
1069:Generated_Source\PSoC4/PWM.c ****     return (PWM_COMP_CAP_BUF_REG & PWM_16BIT_MASK);
 983              		.loc 1 1069 0
ARM GAS  C:\Users\Lenovo\AppData\Local\Temp\ccXXud0b.s 			page 37


 984 0000 024B     		ldr	r3, .L77
 985 0002 1868     		ldr	r0, [r3]
 986 0004 0004     		lsls	r0, r0, #16
 987 0006 000C     		lsrs	r0, r0, #16
1070:Generated_Source\PSoC4/PWM.c **** }
 988              		.loc 1 1070 0
 989              		@ sp needed
 990 0008 7047     		bx	lr
 991              	.L78:
 992 000a C046     		.align	2
 993              	.L77:
 994 000c D0010640 		.word	1074135504
 995              		.cfi_endproc
 996              	.LFE28:
 997              		.size	PWM_ReadCaptureBuf, .-PWM_ReadCaptureBuf
 998              		.section	.text.PWM_SetCaptureMode,"ax",%progbits
 999              		.align	2
 1000              		.global	PWM_SetCaptureMode
 1001              		.code	16
 1002              		.thumb_func
 1003              		.type	PWM_SetCaptureMode, %function
 1004              	PWM_SetCaptureMode:
 1005              	.LFB29:
1071:Generated_Source\PSoC4/PWM.c **** 
1072:Generated_Source\PSoC4/PWM.c **** 
1073:Generated_Source\PSoC4/PWM.c **** /*******************************************************************************
1074:Generated_Source\PSoC4/PWM.c **** * Function Name: PWM_SetCaptureMode
1075:Generated_Source\PSoC4/PWM.c **** ********************************************************************************
1076:Generated_Source\PSoC4/PWM.c **** *
1077:Generated_Source\PSoC4/PWM.c **** * Summary:
1078:Generated_Source\PSoC4/PWM.c **** *  Sets the capture trigger mode. For PWM mode this is the switch input.
1079:Generated_Source\PSoC4/PWM.c **** *  This input is not applicable to the Timer/Counter without Capture and
1080:Generated_Source\PSoC4/PWM.c **** *  Quadrature Decoder modes.
1081:Generated_Source\PSoC4/PWM.c **** *
1082:Generated_Source\PSoC4/PWM.c **** * Parameters:
1083:Generated_Source\PSoC4/PWM.c **** *  triggerMode: Enumerated trigger mode value
1084:Generated_Source\PSoC4/PWM.c **** *   Values:
1085:Generated_Source\PSoC4/PWM.c **** *     - PWM_TRIG_LEVEL     - Level
1086:Generated_Source\PSoC4/PWM.c **** *     - PWM_TRIG_RISING    - Rising edge
1087:Generated_Source\PSoC4/PWM.c **** *     - PWM_TRIG_FALLING   - Falling edge
1088:Generated_Source\PSoC4/PWM.c **** *     - PWM_TRIG_BOTH      - Both rising and falling edge
1089:Generated_Source\PSoC4/PWM.c **** *
1090:Generated_Source\PSoC4/PWM.c **** * Return:
1091:Generated_Source\PSoC4/PWM.c **** *  None
1092:Generated_Source\PSoC4/PWM.c **** *
1093:Generated_Source\PSoC4/PWM.c **** *******************************************************************************/
1094:Generated_Source\PSoC4/PWM.c **** void PWM_SetCaptureMode(uint32 triggerMode)
1095:Generated_Source\PSoC4/PWM.c **** {
 1006              		.loc 1 1095 0
 1007              		.cfi_startproc
 1008              		@ args = 0, pretend = 0, frame = 0
 1009              		@ frame_needed = 0, uses_anonymous_args = 0
 1010              	.LVL60:
 1011 0000 10B5     		push	{r4, lr}
 1012              		.cfi_def_cfa_offset 8
 1013              		.cfi_offset 4, -8
 1014              		.cfi_offset 14, -4
ARM GAS  C:\Users\Lenovo\AppData\Local\Temp\ccXXud0b.s 			page 38


 1015 0002 0400     		movs	r4, r0
1096:Generated_Source\PSoC4/PWM.c ****     uint8 enableInterrupts;
1097:Generated_Source\PSoC4/PWM.c **** 
1098:Generated_Source\PSoC4/PWM.c ****     enableInterrupts = CyEnterCriticalSection();
 1016              		.loc 1 1098 0
 1017 0004 FFF7FEFF 		bl	CyEnterCriticalSection
 1018              	.LVL61:
1099:Generated_Source\PSoC4/PWM.c **** 
1100:Generated_Source\PSoC4/PWM.c ****     PWM_TRIG_CONTROL1_REG &= (uint32)~PWM_CAPTURE_MASK;
 1019              		.loc 1 1100 0
 1020 0008 054B     		ldr	r3, .L80
 1021 000a 1A68     		ldr	r2, [r3]
 1022 000c 0321     		movs	r1, #3
 1023 000e 8A43     		bics	r2, r1
 1024 0010 1A60     		str	r2, [r3]
1101:Generated_Source\PSoC4/PWM.c ****     PWM_TRIG_CONTROL1_REG |= triggerMode;
 1025              		.loc 1 1101 0
 1026 0012 1A68     		ldr	r2, [r3]
 1027 0014 1443     		orrs	r4, r2
 1028              	.LVL62:
 1029 0016 1C60     		str	r4, [r3]
1102:Generated_Source\PSoC4/PWM.c **** 
1103:Generated_Source\PSoC4/PWM.c ****     CyExitCriticalSection(enableInterrupts);
 1030              		.loc 1 1103 0
 1031 0018 FFF7FEFF 		bl	CyExitCriticalSection
 1032              	.LVL63:
1104:Generated_Source\PSoC4/PWM.c **** }
 1033              		.loc 1 1104 0
 1034              		@ sp needed
 1035 001c 10BD     		pop	{r4, pc}
 1036              	.L81:
 1037 001e C046     		.align	2
 1038              	.L80:
 1039 0020 E4010640 		.word	1074135524
 1040              		.cfi_endproc
 1041              	.LFE29:
 1042              		.size	PWM_SetCaptureMode, .-PWM_SetCaptureMode
 1043              		.section	.text.PWM_SetReloadMode,"ax",%progbits
 1044              		.align	2
 1045              		.global	PWM_SetReloadMode
 1046              		.code	16
 1047              		.thumb_func
 1048              		.type	PWM_SetReloadMode, %function
 1049              	PWM_SetReloadMode:
 1050              	.LFB30:
1105:Generated_Source\PSoC4/PWM.c **** 
1106:Generated_Source\PSoC4/PWM.c **** 
1107:Generated_Source\PSoC4/PWM.c **** /*******************************************************************************
1108:Generated_Source\PSoC4/PWM.c **** * Function Name: PWM_SetReloadMode
1109:Generated_Source\PSoC4/PWM.c **** ********************************************************************************
1110:Generated_Source\PSoC4/PWM.c **** *
1111:Generated_Source\PSoC4/PWM.c **** * Summary:
1112:Generated_Source\PSoC4/PWM.c **** *  Sets the reload trigger mode. For Quadrature Decoder mode this is the index
1113:Generated_Source\PSoC4/PWM.c **** *  input.
1114:Generated_Source\PSoC4/PWM.c **** *
1115:Generated_Source\PSoC4/PWM.c **** * Parameters:
1116:Generated_Source\PSoC4/PWM.c **** *  triggerMode: Enumerated trigger mode value
ARM GAS  C:\Users\Lenovo\AppData\Local\Temp\ccXXud0b.s 			page 39


1117:Generated_Source\PSoC4/PWM.c **** *   Values:
1118:Generated_Source\PSoC4/PWM.c **** *     - PWM_TRIG_LEVEL     - Level
1119:Generated_Source\PSoC4/PWM.c **** *     - PWM_TRIG_RISING    - Rising edge
1120:Generated_Source\PSoC4/PWM.c **** *     - PWM_TRIG_FALLING   - Falling edge
1121:Generated_Source\PSoC4/PWM.c **** *     - PWM_TRIG_BOTH      - Both rising and falling edge
1122:Generated_Source\PSoC4/PWM.c **** *
1123:Generated_Source\PSoC4/PWM.c **** * Return:
1124:Generated_Source\PSoC4/PWM.c **** *  None
1125:Generated_Source\PSoC4/PWM.c **** *
1126:Generated_Source\PSoC4/PWM.c **** *******************************************************************************/
1127:Generated_Source\PSoC4/PWM.c **** void PWM_SetReloadMode(uint32 triggerMode)
1128:Generated_Source\PSoC4/PWM.c **** {
 1051              		.loc 1 1128 0
 1052              		.cfi_startproc
 1053              		@ args = 0, pretend = 0, frame = 0
 1054              		@ frame_needed = 0, uses_anonymous_args = 0
 1055              	.LVL64:
 1056 0000 10B5     		push	{r4, lr}
 1057              		.cfi_def_cfa_offset 8
 1058              		.cfi_offset 4, -8
 1059              		.cfi_offset 14, -4
 1060 0002 0400     		movs	r4, r0
1129:Generated_Source\PSoC4/PWM.c ****     uint8 enableInterrupts;
1130:Generated_Source\PSoC4/PWM.c **** 
1131:Generated_Source\PSoC4/PWM.c ****     enableInterrupts = CyEnterCriticalSection();
 1061              		.loc 1 1131 0
 1062 0004 FFF7FEFF 		bl	CyEnterCriticalSection
 1063              	.LVL65:
1132:Generated_Source\PSoC4/PWM.c **** 
1133:Generated_Source\PSoC4/PWM.c ****     PWM_TRIG_CONTROL1_REG &= (uint32)~PWM_RELOAD_MASK;
 1064              		.loc 1 1133 0
 1065 0008 054B     		ldr	r3, .L83
 1066 000a 1A68     		ldr	r2, [r3]
 1067 000c 3021     		movs	r1, #48
 1068 000e 8A43     		bics	r2, r1
 1069 0010 1A60     		str	r2, [r3]
1134:Generated_Source\PSoC4/PWM.c ****     PWM_TRIG_CONTROL1_REG |= ((uint32)(triggerMode << PWM_RELOAD_SHIFT));
 1070              		.loc 1 1134 0
 1071 0012 1A68     		ldr	r2, [r3]
 1072 0014 2401     		lsls	r4, r4, #4
 1073              	.LVL66:
 1074 0016 1443     		orrs	r4, r2
 1075 0018 1C60     		str	r4, [r3]
1135:Generated_Source\PSoC4/PWM.c **** 
1136:Generated_Source\PSoC4/PWM.c ****     CyExitCriticalSection(enableInterrupts);
 1076              		.loc 1 1136 0
 1077 001a FFF7FEFF 		bl	CyExitCriticalSection
 1078              	.LVL67:
1137:Generated_Source\PSoC4/PWM.c **** }
 1079              		.loc 1 1137 0
 1080              		@ sp needed
 1081 001e 10BD     		pop	{r4, pc}
 1082              	.L84:
 1083              		.align	2
 1084              	.L83:
 1085 0020 E4010640 		.word	1074135524
 1086              		.cfi_endproc
ARM GAS  C:\Users\Lenovo\AppData\Local\Temp\ccXXud0b.s 			page 40


 1087              	.LFE30:
 1088              		.size	PWM_SetReloadMode, .-PWM_SetReloadMode
 1089              		.section	.text.PWM_SetStartMode,"ax",%progbits
 1090              		.align	2
 1091              		.global	PWM_SetStartMode
 1092              		.code	16
 1093              		.thumb_func
 1094              		.type	PWM_SetStartMode, %function
 1095              	PWM_SetStartMode:
 1096              	.LFB31:
1138:Generated_Source\PSoC4/PWM.c **** 
1139:Generated_Source\PSoC4/PWM.c **** 
1140:Generated_Source\PSoC4/PWM.c **** /*******************************************************************************
1141:Generated_Source\PSoC4/PWM.c **** * Function Name: PWM_SetStartMode
1142:Generated_Source\PSoC4/PWM.c **** ********************************************************************************
1143:Generated_Source\PSoC4/PWM.c **** *
1144:Generated_Source\PSoC4/PWM.c **** * Summary:
1145:Generated_Source\PSoC4/PWM.c **** *  Sets the start trigger mode. For Quadrature Decoder mode this is the
1146:Generated_Source\PSoC4/PWM.c **** *  phiB input.
1147:Generated_Source\PSoC4/PWM.c **** *
1148:Generated_Source\PSoC4/PWM.c **** * Parameters:
1149:Generated_Source\PSoC4/PWM.c **** *  triggerMode: Enumerated trigger mode value
1150:Generated_Source\PSoC4/PWM.c **** *   Values:
1151:Generated_Source\PSoC4/PWM.c **** *     - PWM_TRIG_LEVEL     - Level
1152:Generated_Source\PSoC4/PWM.c **** *     - PWM_TRIG_RISING    - Rising edge
1153:Generated_Source\PSoC4/PWM.c **** *     - PWM_TRIG_FALLING   - Falling edge
1154:Generated_Source\PSoC4/PWM.c **** *     - PWM_TRIG_BOTH      - Both rising and falling edge
1155:Generated_Source\PSoC4/PWM.c **** *
1156:Generated_Source\PSoC4/PWM.c **** * Return:
1157:Generated_Source\PSoC4/PWM.c **** *  None
1158:Generated_Source\PSoC4/PWM.c **** *
1159:Generated_Source\PSoC4/PWM.c **** *******************************************************************************/
1160:Generated_Source\PSoC4/PWM.c **** void PWM_SetStartMode(uint32 triggerMode)
1161:Generated_Source\PSoC4/PWM.c **** {
 1097              		.loc 1 1161 0
 1098              		.cfi_startproc
 1099              		@ args = 0, pretend = 0, frame = 0
 1100              		@ frame_needed = 0, uses_anonymous_args = 0
 1101              	.LVL68:
 1102 0000 10B5     		push	{r4, lr}
 1103              		.cfi_def_cfa_offset 8
 1104              		.cfi_offset 4, -8
 1105              		.cfi_offset 14, -4
 1106 0002 0400     		movs	r4, r0
1162:Generated_Source\PSoC4/PWM.c ****     uint8 enableInterrupts;
1163:Generated_Source\PSoC4/PWM.c **** 
1164:Generated_Source\PSoC4/PWM.c ****     enableInterrupts = CyEnterCriticalSection();
 1107              		.loc 1 1164 0
 1108 0004 FFF7FEFF 		bl	CyEnterCriticalSection
 1109              	.LVL69:
1165:Generated_Source\PSoC4/PWM.c **** 
1166:Generated_Source\PSoC4/PWM.c ****     PWM_TRIG_CONTROL1_REG &= (uint32)~PWM_START_MASK;
 1110              		.loc 1 1166 0
 1111 0008 054B     		ldr	r3, .L86
 1112 000a 1968     		ldr	r1, [r3]
 1113 000c 054A     		ldr	r2, .L86+4
 1114 000e 0A40     		ands	r2, r1
ARM GAS  C:\Users\Lenovo\AppData\Local\Temp\ccXXud0b.s 			page 41


 1115 0010 1A60     		str	r2, [r3]
1167:Generated_Source\PSoC4/PWM.c ****     PWM_TRIG_CONTROL1_REG |= ((uint32)(triggerMode << PWM_START_SHIFT));
 1116              		.loc 1 1167 0
 1117 0012 1A68     		ldr	r2, [r3]
 1118 0014 2402     		lsls	r4, r4, #8
 1119              	.LVL70:
 1120 0016 1443     		orrs	r4, r2
 1121 0018 1C60     		str	r4, [r3]
1168:Generated_Source\PSoC4/PWM.c **** 
1169:Generated_Source\PSoC4/PWM.c ****     CyExitCriticalSection(enableInterrupts);
 1122              		.loc 1 1169 0
 1123 001a FFF7FEFF 		bl	CyExitCriticalSection
 1124              	.LVL71:
1170:Generated_Source\PSoC4/PWM.c **** }
 1125              		.loc 1 1170 0
 1126              		@ sp needed
 1127 001e 10BD     		pop	{r4, pc}
 1128              	.L87:
 1129              		.align	2
 1130              	.L86:
 1131 0020 E4010640 		.word	1074135524
 1132 0024 FFFCFFFF 		.word	-769
 1133              		.cfi_endproc
 1134              	.LFE31:
 1135              		.size	PWM_SetStartMode, .-PWM_SetStartMode
 1136              		.section	.text.PWM_SetStopMode,"ax",%progbits
 1137              		.align	2
 1138              		.global	PWM_SetStopMode
 1139              		.code	16
 1140              		.thumb_func
 1141              		.type	PWM_SetStopMode, %function
 1142              	PWM_SetStopMode:
 1143              	.LFB32:
1171:Generated_Source\PSoC4/PWM.c **** 
1172:Generated_Source\PSoC4/PWM.c **** 
1173:Generated_Source\PSoC4/PWM.c **** /*******************************************************************************
1174:Generated_Source\PSoC4/PWM.c **** * Function Name: PWM_SetStopMode
1175:Generated_Source\PSoC4/PWM.c **** ********************************************************************************
1176:Generated_Source\PSoC4/PWM.c **** *
1177:Generated_Source\PSoC4/PWM.c **** * Summary:
1178:Generated_Source\PSoC4/PWM.c **** *  Sets the stop trigger mode. For PWM mode this is the kill input.
1179:Generated_Source\PSoC4/PWM.c **** *
1180:Generated_Source\PSoC4/PWM.c **** * Parameters:
1181:Generated_Source\PSoC4/PWM.c **** *  triggerMode: Enumerated trigger mode value
1182:Generated_Source\PSoC4/PWM.c **** *   Values:
1183:Generated_Source\PSoC4/PWM.c **** *     - PWM_TRIG_LEVEL     - Level
1184:Generated_Source\PSoC4/PWM.c **** *     - PWM_TRIG_RISING    - Rising edge
1185:Generated_Source\PSoC4/PWM.c **** *     - PWM_TRIG_FALLING   - Falling edge
1186:Generated_Source\PSoC4/PWM.c **** *     - PWM_TRIG_BOTH      - Both rising and falling edge
1187:Generated_Source\PSoC4/PWM.c **** *
1188:Generated_Source\PSoC4/PWM.c **** * Return:
1189:Generated_Source\PSoC4/PWM.c **** *  None
1190:Generated_Source\PSoC4/PWM.c **** *
1191:Generated_Source\PSoC4/PWM.c **** *******************************************************************************/
1192:Generated_Source\PSoC4/PWM.c **** void PWM_SetStopMode(uint32 triggerMode)
1193:Generated_Source\PSoC4/PWM.c **** {
 1144              		.loc 1 1193 0
ARM GAS  C:\Users\Lenovo\AppData\Local\Temp\ccXXud0b.s 			page 42


 1145              		.cfi_startproc
 1146              		@ args = 0, pretend = 0, frame = 0
 1147              		@ frame_needed = 0, uses_anonymous_args = 0
 1148              	.LVL72:
 1149 0000 10B5     		push	{r4, lr}
 1150              		.cfi_def_cfa_offset 8
 1151              		.cfi_offset 4, -8
 1152              		.cfi_offset 14, -4
 1153 0002 0400     		movs	r4, r0
1194:Generated_Source\PSoC4/PWM.c ****     uint8 enableInterrupts;
1195:Generated_Source\PSoC4/PWM.c **** 
1196:Generated_Source\PSoC4/PWM.c ****     enableInterrupts = CyEnterCriticalSection();
 1154              		.loc 1 1196 0
 1155 0004 FFF7FEFF 		bl	CyEnterCriticalSection
 1156              	.LVL73:
1197:Generated_Source\PSoC4/PWM.c **** 
1198:Generated_Source\PSoC4/PWM.c ****     PWM_TRIG_CONTROL1_REG &= (uint32)~PWM_STOP_MASK;
 1157              		.loc 1 1198 0
 1158 0008 054B     		ldr	r3, .L89
 1159 000a 1A68     		ldr	r2, [r3]
 1160 000c C021     		movs	r1, #192
 1161 000e 8A43     		bics	r2, r1
 1162 0010 1A60     		str	r2, [r3]
1199:Generated_Source\PSoC4/PWM.c ****     PWM_TRIG_CONTROL1_REG |= ((uint32)(triggerMode << PWM_STOP_SHIFT));
 1163              		.loc 1 1199 0
 1164 0012 1A68     		ldr	r2, [r3]
 1165 0014 A401     		lsls	r4, r4, #6
 1166              	.LVL74:
 1167 0016 1443     		orrs	r4, r2
 1168 0018 1C60     		str	r4, [r3]
1200:Generated_Source\PSoC4/PWM.c **** 
1201:Generated_Source\PSoC4/PWM.c ****     CyExitCriticalSection(enableInterrupts);
 1169              		.loc 1 1201 0
 1170 001a FFF7FEFF 		bl	CyExitCriticalSection
 1171              	.LVL75:
1202:Generated_Source\PSoC4/PWM.c **** }
 1172              		.loc 1 1202 0
 1173              		@ sp needed
 1174 001e 10BD     		pop	{r4, pc}
 1175              	.L90:
 1176              		.align	2
 1177              	.L89:
 1178 0020 E4010640 		.word	1074135524
 1179              		.cfi_endproc
 1180              	.LFE32:
 1181              		.size	PWM_SetStopMode, .-PWM_SetStopMode
 1182              		.section	.text.PWM_SetCountMode,"ax",%progbits
 1183              		.align	2
 1184              		.global	PWM_SetCountMode
 1185              		.code	16
 1186              		.thumb_func
 1187              		.type	PWM_SetCountMode, %function
 1188              	PWM_SetCountMode:
 1189              	.LFB33:
1203:Generated_Source\PSoC4/PWM.c **** 
1204:Generated_Source\PSoC4/PWM.c **** 
1205:Generated_Source\PSoC4/PWM.c **** /*******************************************************************************
ARM GAS  C:\Users\Lenovo\AppData\Local\Temp\ccXXud0b.s 			page 43


1206:Generated_Source\PSoC4/PWM.c **** * Function Name: PWM_SetCountMode
1207:Generated_Source\PSoC4/PWM.c **** ********************************************************************************
1208:Generated_Source\PSoC4/PWM.c **** *
1209:Generated_Source\PSoC4/PWM.c **** * Summary:
1210:Generated_Source\PSoC4/PWM.c **** *  Sets the count trigger mode. For Quadrature Decoder mode this is the phiA
1211:Generated_Source\PSoC4/PWM.c **** *  input.
1212:Generated_Source\PSoC4/PWM.c **** *
1213:Generated_Source\PSoC4/PWM.c **** * Parameters:
1214:Generated_Source\PSoC4/PWM.c **** *  triggerMode: Enumerated trigger mode value
1215:Generated_Source\PSoC4/PWM.c **** *   Values:
1216:Generated_Source\PSoC4/PWM.c **** *     - PWM_TRIG_LEVEL     - Level
1217:Generated_Source\PSoC4/PWM.c **** *     - PWM_TRIG_RISING    - Rising edge
1218:Generated_Source\PSoC4/PWM.c **** *     - PWM_TRIG_FALLING   - Falling edge
1219:Generated_Source\PSoC4/PWM.c **** *     - PWM_TRIG_BOTH      - Both rising and falling edge
1220:Generated_Source\PSoC4/PWM.c **** *
1221:Generated_Source\PSoC4/PWM.c **** * Return:
1222:Generated_Source\PSoC4/PWM.c **** *  None
1223:Generated_Source\PSoC4/PWM.c **** *
1224:Generated_Source\PSoC4/PWM.c **** *******************************************************************************/
1225:Generated_Source\PSoC4/PWM.c **** void PWM_SetCountMode(uint32 triggerMode)
1226:Generated_Source\PSoC4/PWM.c **** {
 1190              		.loc 1 1226 0
 1191              		.cfi_startproc
 1192              		@ args = 0, pretend = 0, frame = 0
 1193              		@ frame_needed = 0, uses_anonymous_args = 0
 1194              	.LVL76:
 1195 0000 10B5     		push	{r4, lr}
 1196              		.cfi_def_cfa_offset 8
 1197              		.cfi_offset 4, -8
 1198              		.cfi_offset 14, -4
 1199 0002 0400     		movs	r4, r0
1227:Generated_Source\PSoC4/PWM.c ****     uint8 enableInterrupts;
1228:Generated_Source\PSoC4/PWM.c **** 
1229:Generated_Source\PSoC4/PWM.c ****     enableInterrupts = CyEnterCriticalSection();
 1200              		.loc 1 1229 0
 1201 0004 FFF7FEFF 		bl	CyEnterCriticalSection
 1202              	.LVL77:
1230:Generated_Source\PSoC4/PWM.c **** 
1231:Generated_Source\PSoC4/PWM.c ****     PWM_TRIG_CONTROL1_REG &= (uint32)~PWM_COUNT_MASK;
 1203              		.loc 1 1231 0
 1204 0008 054B     		ldr	r3, .L92
 1205 000a 1A68     		ldr	r2, [r3]
 1206 000c 0C21     		movs	r1, #12
 1207 000e 8A43     		bics	r2, r1
 1208 0010 1A60     		str	r2, [r3]
1232:Generated_Source\PSoC4/PWM.c ****     PWM_TRIG_CONTROL1_REG |= ((uint32)(triggerMode << PWM_COUNT_SHIFT));
 1209              		.loc 1 1232 0
 1210 0012 1A68     		ldr	r2, [r3]
 1211 0014 A400     		lsls	r4, r4, #2
 1212              	.LVL78:
 1213 0016 1443     		orrs	r4, r2
 1214 0018 1C60     		str	r4, [r3]
1233:Generated_Source\PSoC4/PWM.c **** 
1234:Generated_Source\PSoC4/PWM.c ****     CyExitCriticalSection(enableInterrupts);
 1215              		.loc 1 1234 0
 1216 001a FFF7FEFF 		bl	CyExitCriticalSection
 1217              	.LVL79:
ARM GAS  C:\Users\Lenovo\AppData\Local\Temp\ccXXud0b.s 			page 44


1235:Generated_Source\PSoC4/PWM.c **** }
 1218              		.loc 1 1235 0
 1219              		@ sp needed
 1220 001e 10BD     		pop	{r4, pc}
 1221              	.L93:
 1222              		.align	2
 1223              	.L92:
 1224 0020 E4010640 		.word	1074135524
 1225              		.cfi_endproc
 1226              	.LFE33:
 1227              		.size	PWM_SetCountMode, .-PWM_SetCountMode
 1228              		.section	.text.PWM_TriggerCommand,"ax",%progbits
 1229              		.align	2
 1230              		.global	PWM_TriggerCommand
 1231              		.code	16
 1232              		.thumb_func
 1233              		.type	PWM_TriggerCommand, %function
 1234              	PWM_TriggerCommand:
 1235              	.LFB34:
1236:Generated_Source\PSoC4/PWM.c **** 
1237:Generated_Source\PSoC4/PWM.c **** 
1238:Generated_Source\PSoC4/PWM.c **** /*******************************************************************************
1239:Generated_Source\PSoC4/PWM.c **** * Function Name: PWM_TriggerCommand
1240:Generated_Source\PSoC4/PWM.c **** ********************************************************************************
1241:Generated_Source\PSoC4/PWM.c **** *
1242:Generated_Source\PSoC4/PWM.c **** * Summary:
1243:Generated_Source\PSoC4/PWM.c **** *  Triggers the designated command to occur on the designated TCPWM instances.
1244:Generated_Source\PSoC4/PWM.c **** *  The mask can be used to apply this command simultaneously to more than one
1245:Generated_Source\PSoC4/PWM.c **** *  instance.  This allows multiple TCPWM instances to be synchronized.
1246:Generated_Source\PSoC4/PWM.c **** *
1247:Generated_Source\PSoC4/PWM.c **** * Parameters:
1248:Generated_Source\PSoC4/PWM.c **** *  mask: A combination of mask bits for each instance of the TCPWM that the
1249:Generated_Source\PSoC4/PWM.c **** *        command should apply to.  This function from one instance can be used
1250:Generated_Source\PSoC4/PWM.c **** *        to apply the command to any of the instances in the design.
1251:Generated_Source\PSoC4/PWM.c **** *        The mask value for a specific instance is available with the MASK
1252:Generated_Source\PSoC4/PWM.c **** *        define.
1253:Generated_Source\PSoC4/PWM.c **** *  command: Enumerated command values. Capture command only applicable for
1254:Generated_Source\PSoC4/PWM.c **** *           Timer/Counter with Capture and PWM modes.
1255:Generated_Source\PSoC4/PWM.c **** *   Values:
1256:Generated_Source\PSoC4/PWM.c **** *     - PWM_CMD_CAPTURE    - Trigger Capture/Switch command
1257:Generated_Source\PSoC4/PWM.c **** *     - PWM_CMD_RELOAD     - Trigger Reload/Index command
1258:Generated_Source\PSoC4/PWM.c **** *     - PWM_CMD_STOP       - Trigger Stop/Kill command
1259:Generated_Source\PSoC4/PWM.c **** *     - PWM_CMD_START      - Trigger Start/phiB command
1260:Generated_Source\PSoC4/PWM.c **** *
1261:Generated_Source\PSoC4/PWM.c **** * Return:
1262:Generated_Source\PSoC4/PWM.c **** *  None
1263:Generated_Source\PSoC4/PWM.c **** *
1264:Generated_Source\PSoC4/PWM.c **** *******************************************************************************/
1265:Generated_Source\PSoC4/PWM.c **** void PWM_TriggerCommand(uint32 mask, uint32 command)
1266:Generated_Source\PSoC4/PWM.c **** {
 1236              		.loc 1 1266 0
 1237              		.cfi_startproc
 1238              		@ args = 0, pretend = 0, frame = 0
 1239              		@ frame_needed = 0, uses_anonymous_args = 0
 1240              	.LVL80:
 1241 0000 70B5     		push	{r4, r5, r6, lr}
 1242              		.cfi_def_cfa_offset 16
ARM GAS  C:\Users\Lenovo\AppData\Local\Temp\ccXXud0b.s 			page 45


 1243              		.cfi_offset 4, -16
 1244              		.cfi_offset 5, -12
 1245              		.cfi_offset 6, -8
 1246              		.cfi_offset 14, -4
 1247 0002 0400     		movs	r4, r0
 1248 0004 0D00     		movs	r5, r1
1267:Generated_Source\PSoC4/PWM.c ****     uint8 enableInterrupts;
1268:Generated_Source\PSoC4/PWM.c **** 
1269:Generated_Source\PSoC4/PWM.c ****     enableInterrupts = CyEnterCriticalSection();
 1249              		.loc 1 1269 0
 1250 0006 FFF7FEFF 		bl	CyEnterCriticalSection
 1251              	.LVL81:
1270:Generated_Source\PSoC4/PWM.c **** 
1271:Generated_Source\PSoC4/PWM.c ****     PWM_COMMAND_REG = ((uint32)(mask << command));
 1252              		.loc 1 1271 0
 1253 000a AC40     		lsls	r4, r4, r5
 1254              	.LVL82:
 1255 000c 024B     		ldr	r3, .L95
 1256 000e 1C60     		str	r4, [r3]
1272:Generated_Source\PSoC4/PWM.c **** 
1273:Generated_Source\PSoC4/PWM.c ****     CyExitCriticalSection(enableInterrupts);
 1257              		.loc 1 1273 0
 1258 0010 FFF7FEFF 		bl	CyExitCriticalSection
 1259              	.LVL83:
1274:Generated_Source\PSoC4/PWM.c **** }
 1260              		.loc 1 1274 0
 1261              		@ sp needed
 1262              	.LVL84:
 1263 0014 70BD     		pop	{r4, r5, r6, pc}
 1264              	.L96:
 1265 0016 C046     		.align	2
 1266              	.L95:
 1267 0018 08000640 		.word	1074135048
 1268              		.cfi_endproc
 1269              	.LFE34:
 1270              		.size	PWM_TriggerCommand, .-PWM_TriggerCommand
 1271              		.section	.text.PWM_ReadStatus,"ax",%progbits
 1272              		.align	2
 1273              		.global	PWM_ReadStatus
 1274              		.code	16
 1275              		.thumb_func
 1276              		.type	PWM_ReadStatus, %function
 1277              	PWM_ReadStatus:
 1278              	.LFB35:
1275:Generated_Source\PSoC4/PWM.c **** 
1276:Generated_Source\PSoC4/PWM.c **** 
1277:Generated_Source\PSoC4/PWM.c **** /*******************************************************************************
1278:Generated_Source\PSoC4/PWM.c **** * Function Name: PWM_ReadStatus
1279:Generated_Source\PSoC4/PWM.c **** ********************************************************************************
1280:Generated_Source\PSoC4/PWM.c **** *
1281:Generated_Source\PSoC4/PWM.c **** * Summary:
1282:Generated_Source\PSoC4/PWM.c **** *  Reads the status of the PWM.
1283:Generated_Source\PSoC4/PWM.c **** *
1284:Generated_Source\PSoC4/PWM.c **** * Parameters:
1285:Generated_Source\PSoC4/PWM.c **** *  None
1286:Generated_Source\PSoC4/PWM.c **** *
1287:Generated_Source\PSoC4/PWM.c **** * Return:
ARM GAS  C:\Users\Lenovo\AppData\Local\Temp\ccXXud0b.s 			page 46


1288:Generated_Source\PSoC4/PWM.c **** *  Status
1289:Generated_Source\PSoC4/PWM.c **** *   Values:
1290:Generated_Source\PSoC4/PWM.c **** *     - PWM_STATUS_DOWN    - Set if counting down
1291:Generated_Source\PSoC4/PWM.c **** *     - PWM_STATUS_RUNNING - Set if counter is running
1292:Generated_Source\PSoC4/PWM.c **** *
1293:Generated_Source\PSoC4/PWM.c **** *******************************************************************************/
1294:Generated_Source\PSoC4/PWM.c **** uint32 PWM_ReadStatus(void)
1295:Generated_Source\PSoC4/PWM.c **** {
 1279              		.loc 1 1295 0
 1280              		.cfi_startproc
 1281              		@ args = 0, pretend = 0, frame = 0
 1282              		@ frame_needed = 0, uses_anonymous_args = 0
 1283              		@ link register save eliminated.
1296:Generated_Source\PSoC4/PWM.c ****     return ((PWM_STATUS_REG >> PWM_RUNNING_STATUS_SHIFT) |
 1284              		.loc 1 1296 0
 1285 0000 034B     		ldr	r3, .L98
 1286 0002 1868     		ldr	r0, [r3]
 1287 0004 820F     		lsrs	r2, r0, #30
1297:Generated_Source\PSoC4/PWM.c ****             (PWM_STATUS_REG & PWM_STATUS_DOWN));
 1288              		.loc 1 1297 0
 1289 0006 1B68     		ldr	r3, [r3]
 1290 0008 0120     		movs	r0, #1
 1291 000a 1840     		ands	r0, r3
1296:Generated_Source\PSoC4/PWM.c ****     return ((PWM_STATUS_REG >> PWM_RUNNING_STATUS_SHIFT) |
 1292              		.loc 1 1296 0
 1293 000c 1043     		orrs	r0, r2
1298:Generated_Source\PSoC4/PWM.c **** }
 1294              		.loc 1 1298 0
 1295              		@ sp needed
 1296 000e 7047     		bx	lr
 1297              	.L99:
 1298              		.align	2
 1299              	.L98:
 1300 0010 C4010640 		.word	1074135492
 1301              		.cfi_endproc
 1302              	.LFE35:
 1303              		.size	PWM_ReadStatus, .-PWM_ReadStatus
 1304              		.section	.text.PWM_SetInterruptMode,"ax",%progbits
 1305              		.align	2
 1306              		.global	PWM_SetInterruptMode
 1307              		.code	16
 1308              		.thumb_func
 1309              		.type	PWM_SetInterruptMode, %function
 1310              	PWM_SetInterruptMode:
 1311              	.LFB36:
1299:Generated_Source\PSoC4/PWM.c **** 
1300:Generated_Source\PSoC4/PWM.c **** 
1301:Generated_Source\PSoC4/PWM.c **** /*******************************************************************************
1302:Generated_Source\PSoC4/PWM.c **** * Function Name: PWM_SetInterruptMode
1303:Generated_Source\PSoC4/PWM.c **** ********************************************************************************
1304:Generated_Source\PSoC4/PWM.c **** *
1305:Generated_Source\PSoC4/PWM.c **** * Summary:
1306:Generated_Source\PSoC4/PWM.c **** *  Sets the interrupt mask to control which interrupt
1307:Generated_Source\PSoC4/PWM.c **** *  requests generate the interrupt signal.
1308:Generated_Source\PSoC4/PWM.c **** *
1309:Generated_Source\PSoC4/PWM.c **** * Parameters:
1310:Generated_Source\PSoC4/PWM.c **** *   interruptMask: Mask of bits to be enabled
ARM GAS  C:\Users\Lenovo\AppData\Local\Temp\ccXXud0b.s 			page 47


1311:Generated_Source\PSoC4/PWM.c **** *   Values:
1312:Generated_Source\PSoC4/PWM.c **** *     - PWM_INTR_MASK_TC       - Terminal count mask
1313:Generated_Source\PSoC4/PWM.c **** *     - PWM_INTR_MASK_CC_MATCH - Compare count / capture mask
1314:Generated_Source\PSoC4/PWM.c **** *
1315:Generated_Source\PSoC4/PWM.c **** * Return:
1316:Generated_Source\PSoC4/PWM.c **** *  None
1317:Generated_Source\PSoC4/PWM.c **** *
1318:Generated_Source\PSoC4/PWM.c **** *******************************************************************************/
1319:Generated_Source\PSoC4/PWM.c **** void PWM_SetInterruptMode(uint32 interruptMask)
1320:Generated_Source\PSoC4/PWM.c **** {
 1312              		.loc 1 1320 0
 1313              		.cfi_startproc
 1314              		@ args = 0, pretend = 0, frame = 0
 1315              		@ frame_needed = 0, uses_anonymous_args = 0
 1316              		@ link register save eliminated.
 1317              	.LVL85:
1321:Generated_Source\PSoC4/PWM.c ****     PWM_INTERRUPT_MASK_REG =  interruptMask;
 1318              		.loc 1 1321 0
 1319 0000 014B     		ldr	r3, .L101
 1320 0002 1860     		str	r0, [r3]
1322:Generated_Source\PSoC4/PWM.c **** }
 1321              		.loc 1 1322 0
 1322              		@ sp needed
 1323 0004 7047     		bx	lr
 1324              	.L102:
 1325 0006 C046     		.align	2
 1326              	.L101:
 1327 0008 F8010640 		.word	1074135544
 1328              		.cfi_endproc
 1329              	.LFE36:
 1330              		.size	PWM_SetInterruptMode, .-PWM_SetInterruptMode
 1331              		.section	.text.PWM_Init,"ax",%progbits
 1332              		.align	2
 1333              		.global	PWM_Init
 1334              		.code	16
 1335              		.thumb_func
 1336              		.type	PWM_Init, %function
 1337              	PWM_Init:
 1338              	.LFB1:
  39:Generated_Source\PSoC4/PWM.c **** 
 1339              		.loc 1 39 0
 1340              		.cfi_startproc
 1341              		@ args = 0, pretend = 0, frame = 0
 1342              		@ frame_needed = 0, uses_anonymous_args = 0
 1343 0000 10B5     		push	{r4, lr}
 1344              		.cfi_def_cfa_offset 8
 1345              		.cfi_offset 4, -8
 1346              		.cfi_offset 14, -4
  89:Generated_Source\PSoC4/PWM.c **** 
 1347              		.loc 1 89 0
 1348 0002 0E4C     		ldr	r4, .L104
 1349 0004 8023     		movs	r3, #128
 1350 0006 DB04     		lsls	r3, r3, #19
 1351 0008 2360     		str	r3, [r4]
  95:Generated_Source\PSoC4/PWM.c ****             
 1352              		.loc 1 95 0
 1353 000a 2368     		ldr	r3, [r4]
ARM GAS  C:\Users\Lenovo\AppData\Local\Temp\ccXXud0b.s 			page 48


 1354 000c 2360     		str	r3, [r4]
 103:Generated_Source\PSoC4/PWM.c ****             #endif  /* (PWM_CY_TCPWM_V2 && PWM_PWM_UPDOWN_CNT_USED && !PWM_CY_TCPWM_4000) */
 1355              		.loc 1 103 0
 1356 000e 0020     		movs	r0, #0
 1357 0010 FFF7FEFF 		bl	PWM_WriteCounter
 1358              	.LVL86:
 112:Generated_Source\PSoC4/PWM.c ****         #endif  /* (PWM__PWM == PWM_PWM_MODE) */
 1359              		.loc 1 112 0
 1360 0014 2368     		ldr	r3, [r4]
 1361 0016 2360     		str	r3, [r4]
 116:Generated_Source\PSoC4/PWM.c ****     
 1362              		.loc 1 116 0
 1363 0018 0C22     		movs	r2, #12
 1364 001a 094B     		ldr	r3, .L104+4
 1365 001c 1A60     		str	r2, [r3]
 119:Generated_Source\PSoC4/PWM.c **** 
 1366              		.loc 1 119 0
 1367 001e 0020     		movs	r0, #0
 1368 0020 FFF7FEFF 		bl	PWM_SetInterruptMode
 1369              	.LVL87:
 129:Generated_Source\PSoC4/PWM.c ****             #endif  /* ( PWM_PWM_LEFT == PWM_PWM_ALIGN) */
 1370              		.loc 1 129 0
 1371 0024 3122     		movs	r2, #49
 1372 0026 074B     		ldr	r3, .L104+8
 1373 0028 1A60     		str	r2, [r3]
 146:Generated_Source\PSoC4/PWM.c ****         PWM_WriteCompare(PWM_PWM_COMPARE_VALUE);
 1374              		.loc 1 146 0
 1375 002a 074C     		ldr	r4, .L104+12
 1376 002c 2000     		movs	r0, r4
 1377 002e FFF7FEFF 		bl	PWM_WritePeriod
 1378              	.LVL88:
 147:Generated_Source\PSoC4/PWM.c **** 
 1379              		.loc 1 147 0
 1380 0032 2000     		movs	r0, r4
 1381 0034 FFF7FEFF 		bl	PWM_WriteCompare
 1382              	.LVL89:
 160:Generated_Source\PSoC4/PWM.c **** 
 1383              		.loc 1 160 0
 1384              		@ sp needed
 1385 0038 10BD     		pop	{r4, pc}
 1386              	.L105:
 1387 003a C046     		.align	2
 1388              	.L104:
 1389 003c C0010640 		.word	1074135488
 1390 0040 E4010640 		.word	1074135524
 1391 0044 E8010640 		.word	1074135528
 1392 0048 FFFF0000 		.word	65535
 1393              		.cfi_endproc
 1394              	.LFE1:
 1395              		.size	PWM_Init, .-PWM_Init
 1396              		.section	.text.PWM_Start,"ax",%progbits
 1397              		.align	2
 1398              		.global	PWM_Start
 1399              		.code	16
 1400              		.thumb_func
 1401              		.type	PWM_Start, %function
 1402              	PWM_Start:
ARM GAS  C:\Users\Lenovo\AppData\Local\Temp\ccXXud0b.s 			page 49


 1403              	.LFB3:
 231:Generated_Source\PSoC4/PWM.c ****     if (0u == PWM_initVar)
 1404              		.loc 1 231 0
 1405              		.cfi_startproc
 1406              		@ args = 0, pretend = 0, frame = 0
 1407              		@ frame_needed = 0, uses_anonymous_args = 0
 1408 0000 10B5     		push	{r4, lr}
 1409              		.cfi_def_cfa_offset 8
 1410              		.cfi_offset 4, -8
 1411              		.cfi_offset 14, -4
 232:Generated_Source\PSoC4/PWM.c ****     {
 1412              		.loc 1 232 0
 1413 0002 064B     		ldr	r3, .L108
 1414 0004 1B78     		ldrb	r3, [r3]
 1415 0006 002B     		cmp	r3, #0
 1416 0008 04D1     		bne	.L107
 234:Generated_Source\PSoC4/PWM.c ****         PWM_initVar = 1u;
 1417              		.loc 1 234 0
 1418 000a FFF7FEFF 		bl	PWM_Init
 1419              	.LVL90:
 235:Generated_Source\PSoC4/PWM.c ****     }
 1420              		.loc 1 235 0
 1421 000e 0122     		movs	r2, #1
 1422 0010 024B     		ldr	r3, .L108
 1423 0012 1A70     		strb	r2, [r3]
 1424              	.L107:
 238:Generated_Source\PSoC4/PWM.c **** }
 1425              		.loc 1 238 0
 1426 0014 FFF7FEFF 		bl	PWM_Enable
 1427              	.LVL91:
 239:Generated_Source\PSoC4/PWM.c **** 
 1428              		.loc 1 239 0
 1429              		@ sp needed
 1430 0018 10BD     		pop	{r4, pc}
 1431              	.L109:
 1432 001a C046     		.align	2
 1433              	.L108:
 1434 001c 00000000 		.word	.LANCHOR0
 1435              		.cfi_endproc
 1436              	.LFE3:
 1437              		.size	PWM_Start, .-PWM_Start
 1438              		.section	.text.PWM_GetInterruptSourceMasked,"ax",%progbits
 1439              		.align	2
 1440              		.global	PWM_GetInterruptSourceMasked
 1441              		.code	16
 1442              		.thumb_func
 1443              		.type	PWM_GetInterruptSourceMasked, %function
 1444              	PWM_GetInterruptSourceMasked:
 1445              	.LFB37:
1323:Generated_Source\PSoC4/PWM.c **** 
1324:Generated_Source\PSoC4/PWM.c **** 
1325:Generated_Source\PSoC4/PWM.c **** /*******************************************************************************
1326:Generated_Source\PSoC4/PWM.c **** * Function Name: PWM_GetInterruptSourceMasked
1327:Generated_Source\PSoC4/PWM.c **** ********************************************************************************
1328:Generated_Source\PSoC4/PWM.c **** *
1329:Generated_Source\PSoC4/PWM.c **** * Summary:
1330:Generated_Source\PSoC4/PWM.c **** *  Gets the interrupt requests masked by the interrupt mask.
ARM GAS  C:\Users\Lenovo\AppData\Local\Temp\ccXXud0b.s 			page 50


1331:Generated_Source\PSoC4/PWM.c **** *
1332:Generated_Source\PSoC4/PWM.c **** * Parameters:
1333:Generated_Source\PSoC4/PWM.c **** *   None
1334:Generated_Source\PSoC4/PWM.c **** *
1335:Generated_Source\PSoC4/PWM.c **** * Return:
1336:Generated_Source\PSoC4/PWM.c **** *  Masked interrupt source
1337:Generated_Source\PSoC4/PWM.c **** *   Values:
1338:Generated_Source\PSoC4/PWM.c **** *     - PWM_INTR_MASK_TC       - Terminal count mask
1339:Generated_Source\PSoC4/PWM.c **** *     - PWM_INTR_MASK_CC_MATCH - Compare count / capture mask
1340:Generated_Source\PSoC4/PWM.c **** *
1341:Generated_Source\PSoC4/PWM.c **** *******************************************************************************/
1342:Generated_Source\PSoC4/PWM.c **** uint32 PWM_GetInterruptSourceMasked(void)
1343:Generated_Source\PSoC4/PWM.c **** {
 1446              		.loc 1 1343 0
 1447              		.cfi_startproc
 1448              		@ args = 0, pretend = 0, frame = 0
 1449              		@ frame_needed = 0, uses_anonymous_args = 0
 1450              		@ link register save eliminated.
1344:Generated_Source\PSoC4/PWM.c ****     return (PWM_INTERRUPT_MASKED_REG);
 1451              		.loc 1 1344 0
 1452 0000 014B     		ldr	r3, .L111
 1453 0002 1868     		ldr	r0, [r3]
1345:Generated_Source\PSoC4/PWM.c **** }
 1454              		.loc 1 1345 0
 1455              		@ sp needed
 1456 0004 7047     		bx	lr
 1457              	.L112:
 1458 0006 C046     		.align	2
 1459              	.L111:
 1460 0008 FC010640 		.word	1074135548
 1461              		.cfi_endproc
 1462              	.LFE37:
 1463              		.size	PWM_GetInterruptSourceMasked, .-PWM_GetInterruptSourceMasked
 1464              		.section	.text.PWM_GetInterruptSource,"ax",%progbits
 1465              		.align	2
 1466              		.global	PWM_GetInterruptSource
 1467              		.code	16
 1468              		.thumb_func
 1469              		.type	PWM_GetInterruptSource, %function
 1470              	PWM_GetInterruptSource:
 1471              	.LFB38:
1346:Generated_Source\PSoC4/PWM.c **** 
1347:Generated_Source\PSoC4/PWM.c **** 
1348:Generated_Source\PSoC4/PWM.c **** /*******************************************************************************
1349:Generated_Source\PSoC4/PWM.c **** * Function Name: PWM_GetInterruptSource
1350:Generated_Source\PSoC4/PWM.c **** ********************************************************************************
1351:Generated_Source\PSoC4/PWM.c **** *
1352:Generated_Source\PSoC4/PWM.c **** * Summary:
1353:Generated_Source\PSoC4/PWM.c **** *  Gets the interrupt requests (without masking).
1354:Generated_Source\PSoC4/PWM.c **** *
1355:Generated_Source\PSoC4/PWM.c **** * Parameters:
1356:Generated_Source\PSoC4/PWM.c **** *  None
1357:Generated_Source\PSoC4/PWM.c **** *
1358:Generated_Source\PSoC4/PWM.c **** * Return:
1359:Generated_Source\PSoC4/PWM.c **** *  Interrupt request value
1360:Generated_Source\PSoC4/PWM.c **** *   Values:
1361:Generated_Source\PSoC4/PWM.c **** *     - PWM_INTR_MASK_TC       - Terminal count mask
ARM GAS  C:\Users\Lenovo\AppData\Local\Temp\ccXXud0b.s 			page 51


1362:Generated_Source\PSoC4/PWM.c **** *     - PWM_INTR_MASK_CC_MATCH - Compare count / capture mask
1363:Generated_Source\PSoC4/PWM.c **** *
1364:Generated_Source\PSoC4/PWM.c **** *******************************************************************************/
1365:Generated_Source\PSoC4/PWM.c **** uint32 PWM_GetInterruptSource(void)
1366:Generated_Source\PSoC4/PWM.c **** {
 1472              		.loc 1 1366 0
 1473              		.cfi_startproc
 1474              		@ args = 0, pretend = 0, frame = 0
 1475              		@ frame_needed = 0, uses_anonymous_args = 0
 1476              		@ link register save eliminated.
1367:Generated_Source\PSoC4/PWM.c ****     return (PWM_INTERRUPT_REQ_REG);
 1477              		.loc 1 1367 0
 1478 0000 014B     		ldr	r3, .L114
 1479 0002 1868     		ldr	r0, [r3]
1368:Generated_Source\PSoC4/PWM.c **** }
 1480              		.loc 1 1368 0
 1481              		@ sp needed
 1482 0004 7047     		bx	lr
 1483              	.L115:
 1484 0006 C046     		.align	2
 1485              	.L114:
 1486 0008 F0010640 		.word	1074135536
 1487              		.cfi_endproc
 1488              	.LFE38:
 1489              		.size	PWM_GetInterruptSource, .-PWM_GetInterruptSource
 1490              		.section	.text.PWM_ClearInterrupt,"ax",%progbits
 1491              		.align	2
 1492              		.global	PWM_ClearInterrupt
 1493              		.code	16
 1494              		.thumb_func
 1495              		.type	PWM_ClearInterrupt, %function
 1496              	PWM_ClearInterrupt:
 1497              	.LFB39:
1369:Generated_Source\PSoC4/PWM.c **** 
1370:Generated_Source\PSoC4/PWM.c **** 
1371:Generated_Source\PSoC4/PWM.c **** /*******************************************************************************
1372:Generated_Source\PSoC4/PWM.c **** * Function Name: PWM_ClearInterrupt
1373:Generated_Source\PSoC4/PWM.c **** ********************************************************************************
1374:Generated_Source\PSoC4/PWM.c **** *
1375:Generated_Source\PSoC4/PWM.c **** * Summary:
1376:Generated_Source\PSoC4/PWM.c **** *  Clears the interrupt request.
1377:Generated_Source\PSoC4/PWM.c **** *
1378:Generated_Source\PSoC4/PWM.c **** * Parameters:
1379:Generated_Source\PSoC4/PWM.c **** *   interruptMask: Mask of interrupts to clear
1380:Generated_Source\PSoC4/PWM.c **** *   Values:
1381:Generated_Source\PSoC4/PWM.c **** *     - PWM_INTR_MASK_TC       - Terminal count mask
1382:Generated_Source\PSoC4/PWM.c **** *     - PWM_INTR_MASK_CC_MATCH - Compare count / capture mask
1383:Generated_Source\PSoC4/PWM.c **** *
1384:Generated_Source\PSoC4/PWM.c **** * Return:
1385:Generated_Source\PSoC4/PWM.c **** *  None
1386:Generated_Source\PSoC4/PWM.c **** *
1387:Generated_Source\PSoC4/PWM.c **** *******************************************************************************/
1388:Generated_Source\PSoC4/PWM.c **** void PWM_ClearInterrupt(uint32 interruptMask)
1389:Generated_Source\PSoC4/PWM.c **** {
 1498              		.loc 1 1389 0
 1499              		.cfi_startproc
 1500              		@ args = 0, pretend = 0, frame = 0
ARM GAS  C:\Users\Lenovo\AppData\Local\Temp\ccXXud0b.s 			page 52


 1501              		@ frame_needed = 0, uses_anonymous_args = 0
 1502              		@ link register save eliminated.
 1503              	.LVL92:
1390:Generated_Source\PSoC4/PWM.c ****     PWM_INTERRUPT_REQ_REG = interruptMask;
 1504              		.loc 1 1390 0
 1505 0000 014B     		ldr	r3, .L117
 1506 0002 1860     		str	r0, [r3]
1391:Generated_Source\PSoC4/PWM.c **** }
 1507              		.loc 1 1391 0
 1508              		@ sp needed
 1509 0004 7047     		bx	lr
 1510              	.L118:
 1511 0006 C046     		.align	2
 1512              	.L117:
 1513 0008 F0010640 		.word	1074135536
 1514              		.cfi_endproc
 1515              	.LFE39:
 1516              		.size	PWM_ClearInterrupt, .-PWM_ClearInterrupt
 1517              		.section	.text.PWM_SetInterrupt,"ax",%progbits
 1518              		.align	2
 1519              		.global	PWM_SetInterrupt
 1520              		.code	16
 1521              		.thumb_func
 1522              		.type	PWM_SetInterrupt, %function
 1523              	PWM_SetInterrupt:
 1524              	.LFB40:
1392:Generated_Source\PSoC4/PWM.c **** 
1393:Generated_Source\PSoC4/PWM.c **** 
1394:Generated_Source\PSoC4/PWM.c **** /*******************************************************************************
1395:Generated_Source\PSoC4/PWM.c **** * Function Name: PWM_SetInterrupt
1396:Generated_Source\PSoC4/PWM.c **** ********************************************************************************
1397:Generated_Source\PSoC4/PWM.c **** *
1398:Generated_Source\PSoC4/PWM.c **** * Summary:
1399:Generated_Source\PSoC4/PWM.c **** *  Sets a software interrupt request.
1400:Generated_Source\PSoC4/PWM.c **** *
1401:Generated_Source\PSoC4/PWM.c **** * Parameters:
1402:Generated_Source\PSoC4/PWM.c **** *   interruptMask: Mask of interrupts to set
1403:Generated_Source\PSoC4/PWM.c **** *   Values:
1404:Generated_Source\PSoC4/PWM.c **** *     - PWM_INTR_MASK_TC       - Terminal count mask
1405:Generated_Source\PSoC4/PWM.c **** *     - PWM_INTR_MASK_CC_MATCH - Compare count / capture mask
1406:Generated_Source\PSoC4/PWM.c **** *
1407:Generated_Source\PSoC4/PWM.c **** * Return:
1408:Generated_Source\PSoC4/PWM.c **** *  None
1409:Generated_Source\PSoC4/PWM.c **** *
1410:Generated_Source\PSoC4/PWM.c **** *******************************************************************************/
1411:Generated_Source\PSoC4/PWM.c **** void PWM_SetInterrupt(uint32 interruptMask)
1412:Generated_Source\PSoC4/PWM.c **** {
 1525              		.loc 1 1412 0
 1526              		.cfi_startproc
 1527              		@ args = 0, pretend = 0, frame = 0
 1528              		@ frame_needed = 0, uses_anonymous_args = 0
 1529              		@ link register save eliminated.
 1530              	.LVL93:
1413:Generated_Source\PSoC4/PWM.c ****     PWM_INTERRUPT_SET_REG = interruptMask;
 1531              		.loc 1 1413 0
 1532 0000 014B     		ldr	r3, .L120
 1533 0002 1860     		str	r0, [r3]
ARM GAS  C:\Users\Lenovo\AppData\Local\Temp\ccXXud0b.s 			page 53


1414:Generated_Source\PSoC4/PWM.c **** }
 1534              		.loc 1 1414 0
 1535              		@ sp needed
 1536 0004 7047     		bx	lr
 1537              	.L121:
 1538 0006 C046     		.align	2
 1539              	.L120:
 1540 0008 F4010640 		.word	1074135540
 1541              		.cfi_endproc
 1542              	.LFE40:
 1543              		.size	PWM_SetInterrupt, .-PWM_SetInterrupt
 1544              		.global	PWM_initVar
 1545              		.bss
 1546              		.set	.LANCHOR0,. + 0
 1547              		.type	PWM_initVar, %object
 1548              		.size	PWM_initVar, 1
 1549              	PWM_initVar:
 1550 0000 00       		.space	1
 1551              		.text
 1552              	.Letext0:
 1553              		.file 2 "Generated_Source\\PSoC4\\cytypes.h"
 1554              		.file 3 "Generated_Source\\PSoC4\\CyLib.h"