ARM GAS  C:\Users\Lenovo\AppData\Local\Temp\cctKFMiP.s 			page 1


   1              		.syntax unified
   2              		.cpu cortex-m0
   3              		.fpu softvfp
   4              		.eabi_attribute 20, 1
   5              		.eabi_attribute 21, 1
   6              		.eabi_attribute 23, 3
   7              		.eabi_attribute 24, 1
   8              		.eabi_attribute 25, 1
   9              		.eabi_attribute 26, 1
  10              		.eabi_attribute 30, 1
  11              		.eabi_attribute 34, 0
  12              		.eabi_attribute 18, 4
  13              		.thumb
  14              		.syntax unified
  15              		.file	"main.c"
  16              		.text
  17              	.Ltext0:
  18              		.cfi_sections	.debug_frame
  19              		.section	.text.GPIOIsrHandler,"ax",%progbits
  20              		.align	2
  21              		.global	GPIOIsrHandler
  22              		.code	16
  23              		.thumb_func
  24              		.type	GPIOIsrHandler, %function
  25              	GPIOIsrHandler:
  26              	.LFB33:
  27              		.file 1 "main.c"
   1:main.c        **** /* ========================================
   2:main.c        ****  *
   3:main.c        ****  * Copyright YOUR COMPANY, THE YEAR
   4:main.c        ****  * All Rights Reserved
   5:main.c        ****  * UNPUBLISHED, LICENSED SOFTWARE.
   6:main.c        ****  *
   7:main.c        ****  * CONFIDENTIAL AND PROPRIETARY INFORMATION
   8:main.c        ****  * WHICH IS THE PROPERTY OF your company.
   9:main.c        ****  *
  10:main.c        ****  * ========================================
  11:main.c        **** */
  12:main.c        **** #include "project.h"
  13:main.c        **** #define DEFAULT_PRIORITY                    (3u)
  14:main.c        **** #define HIGHER_PRIORITY                     (2u)
  15:main.c        **** #define LIGHT_OFF                       (1u)
  16:main.c        **** #define LIGHT_ON                        (0u)
  17:main.c        **** /* Interrupt prototypes */
  18:main.c        **** CY_ISR_PROTO(GPIOIsrHandler);
  19:main.c        **** CY_ISR_PROTO(GPIOIsrHandler_0);
  20:main.c        **** 
  21:main.c        **** int8 K=1;
  22:main.c        **** int main (void){
  23:main.c        **** CyGlobalIntEnable;
  24:main.c        ****     Clock_Start();
  25:main.c        ****     PWM_Stop();
  26:main.c        ****     Pin_Green_Write(LIGHT_ON);
  27:main.c        ****     Pin_Blue_Write(LIGHT_OFF);
  28:main.c        ****     
  29:main.c        ****     for(;;){
  30:main.c        ****     if (K==1){
ARM GAS  C:\Users\Lenovo\AppData\Local\Temp\cctKFMiP.s 			page 2


  31:main.c        ****     isr_GPIO_StartEx(GPIOIsrHandler);
  32:main.c        ****     isr_GPIO_SetPriority(DEFAULT_PRIORITY);
  33:main.c        ****     };
  34:main.c        ****     if (K==0){
  35:main.c        ****     isr_GPIO_StartEx(GPIOIsrHandler_0);
  36:main.c        ****     isr_GPIO_SetPriority(DEFAULT_PRIORITY);
  37:main.c        ****     };
  38:main.c        ****     }
  39:main.c        ****     
  40:main.c        **** }
  41:main.c        **** 
  42:main.c        **** CY_ISR(GPIOIsrHandler){
  28              		.loc 1 42 0
  29              		.cfi_startproc
  30              		@ args = 0, pretend = 0, frame = 0
  31              		@ frame_needed = 0, uses_anonymous_args = 0
  32 0000 10B5     		push	{r4, lr}
  33              		.cfi_def_cfa_offset 8
  34              		.cfi_offset 4, -8
  35              		.cfi_offset 14, -4
  43:main.c        ****  Pin_Green_Write(LIGHT_OFF);
  36              		.loc 1 43 0
  37 0002 0120     		movs	r0, #1
  38 0004 FFF7FEFF 		bl	Pin_Green_Write
  39              	.LVL0:
  44:main.c        ****     Pin_Blue_Write(LIGHT_OFF);
  40              		.loc 1 44 0
  41 0008 0120     		movs	r0, #1
  42 000a FFF7FEFF 		bl	Pin_Blue_Write
  43              	.LVL1:
  45:main.c        ****     PWM_Start();
  44              		.loc 1 45 0
  45 000e FFF7FEFF 		bl	PWM_Start
  46              	.LVL2:
  46:main.c        ****     isr_GPIO_ClearPending();
  47              		.loc 1 46 0
  48 0012 FFF7FEFF 		bl	isr_GPIO_ClearPending
  49              	.LVL3:
  47:main.c        ****     Pin_SW2_ClearInterrupt();
  50              		.loc 1 47 0
  51 0016 FFF7FEFF 		bl	Pin_SW2_ClearInterrupt
  52              	.LVL4:
  48:main.c        ****     K=0;
  53              		.loc 1 48 0
  54 001a 0022     		movs	r2, #0
  55 001c 014B     		ldr	r3, .L2
  56 001e 1A70     		strb	r2, [r3]
  49:main.c        **** }
  57              		.loc 1 49 0
  58              		@ sp needed
  59 0020 10BD     		pop	{r4, pc}
  60              	.L3:
  61 0022 C046     		.align	2
  62              	.L2:
  63 0024 00000000 		.word	.LANCHOR0
  64              		.cfi_endproc
  65              	.LFE33:
ARM GAS  C:\Users\Lenovo\AppData\Local\Temp\cctKFMiP.s 			page 3


  66              		.size	GPIOIsrHandler, .-GPIOIsrHandler
  67              		.section	.text.GPIOIsrHandler_0,"ax",%progbits
  68              		.align	2
  69              		.global	GPIOIsrHandler_0
  70              		.code	16
  71              		.thumb_func
  72              		.type	GPIOIsrHandler_0, %function
  73              	GPIOIsrHandler_0:
  74              	.LFB34:
  50:main.c        **** 
  51:main.c        **** 
  52:main.c        **** CY_ISR(GPIOIsrHandler_0){
  75              		.loc 1 52 0
  76              		.cfi_startproc
  77              		@ args = 0, pretend = 0, frame = 0
  78              		@ frame_needed = 0, uses_anonymous_args = 0
  79 0000 10B5     		push	{r4, lr}
  80              		.cfi_def_cfa_offset 8
  81              		.cfi_offset 4, -8
  82              		.cfi_offset 14, -4
  53:main.c        ****  Pin_Green_Write(LIGHT_ON);
  83              		.loc 1 53 0
  84 0002 0020     		movs	r0, #0
  85 0004 FFF7FEFF 		bl	Pin_Green_Write
  86              	.LVL5:
  54:main.c        ****     Pin_Blue_Write(LIGHT_ON);
  87              		.loc 1 54 0
  88 0008 0020     		movs	r0, #0
  89 000a FFF7FEFF 		bl	Pin_Blue_Write
  90              	.LVL6:
  55:main.c        ****     PWM_Stop();
  91              		.loc 1 55 0
  92 000e FFF7FEFF 		bl	PWM_Stop
  93              	.LVL7:
  56:main.c        ****     isr_GPIO_ClearPending();
  94              		.loc 1 56 0
  95 0012 FFF7FEFF 		bl	isr_GPIO_ClearPending
  96              	.LVL8:
  57:main.c        ****     Pin_SW2_ClearInterrupt();
  97              		.loc 1 57 0
  98 0016 FFF7FEFF 		bl	Pin_SW2_ClearInterrupt
  99              	.LVL9:
  58:main.c        ****     K=1;
 100              		.loc 1 58 0
 101 001a 0122     		movs	r2, #1
 102 001c 014B     		ldr	r3, .L5
 103 001e 1A70     		strb	r2, [r3]
  59:main.c        **** }...
 104              		.loc 1 59 0
 105              		@ sp needed
 106 0020 10BD     		pop	{r4, pc}
 107              	.L6:
 108 0022 C046     		.align	2
 109              	.L5:
 110 0024 00000000 		.word	.LANCHOR0
 111              		.cfi_endproc
 112              	.LFE34:
ARM GAS  C:\Users\Lenovo\AppData\Local\Temp\cctKFMiP.s 			page 4


 113              		.size	GPIOIsrHandler_0, .-GPIOIsrHandler_0
 114              		.section	.text.main,"ax",%progbits
 115              		.align	2
 116              		.global	main
 117              		.code	16
 118              		.thumb_func
 119              		.type	main, %function
 120              	main:
 121              	.LFB32:
  22:main.c        **** int main (void){
 122              		.loc 1 22 0
 123              		.cfi_startproc
 124              		@ Volatile: function does not return.
 125              		@ args = 0, pretend = 0, frame = 0
 126              		@ frame_needed = 0, uses_anonymous_args = 0
 127 0000 10B5     		push	{r4, lr}
 128              		.cfi_def_cfa_offset 8
 129              		.cfi_offset 4, -8
 130              		.cfi_offset 14, -4
  23:main.c        **** CyGlobalIntEnable;
 131              		.loc 1 23 0
 132              		.syntax divided
 133              	@ 23 "main.c" 1
 134 0002 62B6     		CPSIE   i
 135              	@ 0 "" 2
  24:main.c        ****     Clock_Start();
 136              		.loc 1 24 0
 137              		.thumb
 138              		.syntax unified
 139 0004 FFF7FEFF 		bl	Clock_Start
 140              	.LVL10:
  25:main.c        ****     PWM_Stop();
 141              		.loc 1 25 0
 142 0008 FFF7FEFF 		bl	PWM_Stop
 143              	.LVL11:
  26:main.c        ****     Pin_Green_Write(LIGHT_ON);
 144              		.loc 1 26 0
 145 000c 0020     		movs	r0, #0
 146 000e FFF7FEFF 		bl	Pin_Green_Write
 147              	.LVL12:
  27:main.c        ****     Pin_Blue_Write(LIGHT_OFF);
 148              		.loc 1 27 0
 149 0012 0120     		movs	r0, #1
 150 0014 FFF7FEFF 		bl	Pin_Blue_Write
 151              	.LVL13:
 152              	.L9:
  30:main.c        ****     if (K==1){
 153              		.loc 1 30 0
 154 0018 0B4B     		ldr	r3, .L11
 155 001a 1B78     		ldrb	r3, [r3]
 156 001c 5BB2     		sxtb	r3, r3
 157 001e 012B     		cmp	r3, #1
 158 0020 05D1     		bne	.L8
  31:main.c        ****     isr_GPIO_StartEx(GPIOIsrHandler);
 159              		.loc 1 31 0
 160 0022 0A48     		ldr	r0, .L11+4
 161 0024 FFF7FEFF 		bl	isr_GPIO_StartEx
ARM GAS  C:\Users\Lenovo\AppData\Local\Temp\cctKFMiP.s 			page 5


 162              	.LVL14:
  32:main.c        ****     isr_GPIO_SetPriority(DEFAULT_PRIORITY);
 163              		.loc 1 32 0
 164 0028 0320     		movs	r0, #3
 165 002a FFF7FEFF 		bl	isr_GPIO_SetPriority
 166              	.LVL15:
 167              	.L8:
  34:main.c        ****     if (K==0){
 168              		.loc 1 34 0
 169 002e 064B     		ldr	r3, .L11
 170 0030 1B78     		ldrb	r3, [r3]
 171 0032 5BB2     		sxtb	r3, r3
 172 0034 002B     		cmp	r3, #0
 173 0036 EFD1     		bne	.L9
  35:main.c        ****     isr_GPIO_StartEx(GPIOIsrHandler_0);
 174              		.loc 1 35 0
 175 0038 0548     		ldr	r0, .L11+8
 176 003a FFF7FEFF 		bl	isr_GPIO_StartEx
 177              	.LVL16:
  36:main.c        ****     isr_GPIO_SetPriority(DEFAULT_PRIORITY);
 178              		.loc 1 36 0
 179 003e 0320     		movs	r0, #3
 180 0040 FFF7FEFF 		bl	isr_GPIO_SetPriority
 181              	.LVL17:
 182 0044 E8E7     		b	.L9
 183              	.L12:
 184 0046 C046     		.align	2
 185              	.L11:
 186 0048 00000000 		.word	.LANCHOR0
 187 004c 00000000 		.word	GPIOIsrHandler
 188 0050 00000000 		.word	GPIOIsrHandler_0
 189              		.cfi_endproc
 190              	.LFE32:
 191              		.size	main, .-main
 192              		.global	K
 193              		.data
 194              		.set	.LANCHOR0,. + 0
 195              		.type	K, %object
 196              		.size	K, 1
 197              	K:
 198 0000 01       		.byte	1
 199              		.text
 200              	.Letext0:
 201              		.file 2 "Generated_Source\\PSoC4/Pin_Green.h"
 202              		.file 3 "Generated_Source\\PSoC4/Pin_Blue.h"
 203              		.file 4 "Generated_Source\\PSoC4/PWM.h"
 204              		.file 5 "Generated_Source\\PSoC4/isr_GPIO.h"
 205              		.file 6 "Generated_Source\\PSoC4/Pin_SW2.h"
 206              		.file 7 "Generated_Source\\PSoC4/Clock.h"
 207              		.file 8 "Generated_Source\\PSoC4/cytypes.h"